ARM GAS  C:\Users\David\AppData\Local\Temp\ccMECm6e.s 			page 1


   1              		.cpu cortex-m0
   2              		.fpu softvfp
   3              		.eabi_attribute 20, 1
   4              		.eabi_attribute 21, 1
   5              		.eabi_attribute 23, 3
   6              		.eabi_attribute 24, 1
   7              		.eabi_attribute 25, 1
   8              		.eabi_attribute 26, 1
   9              		.eabi_attribute 30, 1
  10              		.eabi_attribute 34, 0
  11              		.eabi_attribute 18, 4
  12              		.code	16
  13              		.file	"BLE_gatt.c"
  14              		.text
  15              	.Ltext0:
  16              		.cfi_sections	.debug_frame
  17              		.section	.text.CyBle_GattsReInitGattDb,"ax",%progbits
  18              		.align	2
  19              		.global	CyBle_GattsReInitGattDb
  20              		.code	16
  21              		.thumb_func
  22              		.type	CyBle_GattsReInitGattDb, %function
  23              	CyBle_GattsReInitGattDb:
  24              	.LFB2:
  25              		.file 1 ".\\Generated_Source\\PSoC4\\BLE_gatt.c"
   1:.\Generated_Source\PSoC4/BLE_gatt.c **** /*******************************************************************************
   2:.\Generated_Source\PSoC4/BLE_gatt.c **** File Name: CYBLE_gatt.c
   3:.\Generated_Source\PSoC4/BLE_gatt.c **** Version 2.10
   4:.\Generated_Source\PSoC4/BLE_gatt.c **** 
   5:.\Generated_Source\PSoC4/BLE_gatt.c **** Description:
   6:.\Generated_Source\PSoC4/BLE_gatt.c ****  This file contains the source code for the GATT API of the BLE Component.
   7:.\Generated_Source\PSoC4/BLE_gatt.c **** 
   8:.\Generated_Source\PSoC4/BLE_gatt.c **** ********************************************************************************
   9:.\Generated_Source\PSoC4/BLE_gatt.c **** Copyright 2014-2015, Cypress Semiconductor Corporation.  All rights reserved.
  10:.\Generated_Source\PSoC4/BLE_gatt.c **** You may use this file only in accordance with the license, terms, conditions,
  11:.\Generated_Source\PSoC4/BLE_gatt.c **** disclaimers, and limitations in the end user license agreement accompanying
  12:.\Generated_Source\PSoC4/BLE_gatt.c **** the software package with which this file was provided.
  13:.\Generated_Source\PSoC4/BLE_gatt.c **** *******************************************************************************/
  14:.\Generated_Source\PSoC4/BLE_gatt.c **** 
  15:.\Generated_Source\PSoC4/BLE_gatt.c **** 
  16:.\Generated_Source\PSoC4/BLE_gatt.c **** #include "BLE_eventHandler.h"
  17:.\Generated_Source\PSoC4/BLE_gatt.c **** 
  18:.\Generated_Source\PSoC4/BLE_gatt.c **** 
  19:.\Generated_Source\PSoC4/BLE_gatt.c **** /***************************************
  20:.\Generated_Source\PSoC4/BLE_gatt.c **** ##Global variables
  21:.\Generated_Source\PSoC4/BLE_gatt.c **** ***************************************/
  22:.\Generated_Source\PSoC4/BLE_gatt.c **** 
  23:.\Generated_Source\PSoC4/BLE_gatt.c **** CYBLE_STATE_T cyBle_state;
  24:.\Generated_Source\PSoC4/BLE_gatt.c **** 
  25:.\Generated_Source\PSoC4/BLE_gatt.c **** 
  26:.\Generated_Source\PSoC4/BLE_gatt.c **** #if(CYBLE_GATT_ROLE_SERVER)
  27:.\Generated_Source\PSoC4/BLE_gatt.c ****     
  28:.\Generated_Source\PSoC4/BLE_gatt.c ****     const CYBLE_GATTS_T cyBle_gatts =
  29:.\Generated_Source\PSoC4/BLE_gatt.c **** {
  30:.\Generated_Source\PSoC4/BLE_gatt.c ****     0x0008u,    /* Handle of the GATT service */
  31:.\Generated_Source\PSoC4/BLE_gatt.c ****     0x000Au,    /* Handle of the Service Changed characteristic */
  32:.\Generated_Source\PSoC4/BLE_gatt.c ****     0x000Bu,    /* Handle of the Client Characteristic Configuration descriptor */
ARM GAS  C:\Users\David\AppData\Local\Temp\ccMECm6e.s 			page 2


  33:.\Generated_Source\PSoC4/BLE_gatt.c **** };
  34:.\Generated_Source\PSoC4/BLE_gatt.c ****     
  35:.\Generated_Source\PSoC4/BLE_gatt.c ****     static uint8 cyBle_attValues[0x3Cu] = {
  36:.\Generated_Source\PSoC4/BLE_gatt.c ****     /* Device Name */
  37:.\Generated_Source\PSoC4/BLE_gatt.c ****     (uint8)'D', (uint8)'a', (uint8)'t', (uint8)'s', (uint8)'o', (uint8)'n', 
  38:.\Generated_Source\PSoC4/BLE_gatt.c **** 
  39:.\Generated_Source\PSoC4/BLE_gatt.c ****     /* Appearance */
  40:.\Generated_Source\PSoC4/BLE_gatt.c ****     0x00u, 0x00u, 
  41:.\Generated_Source\PSoC4/BLE_gatt.c **** 
  42:.\Generated_Source\PSoC4/BLE_gatt.c ****     /* Peripheral Preferred Connection Parameters */
  43:.\Generated_Source\PSoC4/BLE_gatt.c ****     0x06u, 0x00u, 0x20u, 0x00u, 0x00u, 0x00u, 0xE8u, 0x03u, 
  44:.\Generated_Source\PSoC4/BLE_gatt.c **** 
  45:.\Generated_Source\PSoC4/BLE_gatt.c ****     /* Service Changed */
  46:.\Generated_Source\PSoC4/BLE_gatt.c ****     0x00u, 0x00u, 0x00u, 0x00u, 
  47:.\Generated_Source\PSoC4/BLE_gatt.c **** 
  48:.\Generated_Source\PSoC4/BLE_gatt.c ****     /* Rx */
  49:.\Generated_Source\PSoC4/BLE_gatt.c ****     0x00u, 0x00u, 0x00u, 0x00u, 0x00u, 0x00u, 0x00u, 0x00u, 0x00u, 0x00u, 0x00u, 0x00u, 0x00u, 0x00
  50:.\Generated_Source\PSoC4/BLE_gatt.c **** 0x00u, 0x00u, 0x00u, 
  51:.\Generated_Source\PSoC4/BLE_gatt.c **** 
  52:.\Generated_Source\PSoC4/BLE_gatt.c ****     /* Tx */
  53:.\Generated_Source\PSoC4/BLE_gatt.c ****     0x00u, 0x00u, 0x00u, 0x00u, 0x00u, 0x00u, 0x00u, 0x00u, 0x00u, 0x00u, 0x00u, 0x00u, 0x00u, 0x00
  54:.\Generated_Source\PSoC4/BLE_gatt.c **** 0x00u, 0x00u, 0x00u, 
  55:.\Generated_Source\PSoC4/BLE_gatt.c **** 
  56:.\Generated_Source\PSoC4/BLE_gatt.c **** };
  57:.\Generated_Source\PSoC4/BLE_gatt.c **** 
  58:.\Generated_Source\PSoC4/BLE_gatt.c **** #if defined(__GNUC__) || defined(__ARMCC_VERSION)
  59:.\Generated_Source\PSoC4/BLE_gatt.c **** const uint8 cyBle_attValuesCCCDFlashMemory[CYBLE_GAP_MAX_BONDED_DEVICE + 1u][CYBLE_GATT_DB_CCCD_COU
  60:.\Generated_Source\PSoC4/BLE_gatt.c **** #elif defined(__ICCARM__)
  61:.\Generated_Source\PSoC4/BLE_gatt.c **** /* The cyBle_attValuesCCCDFlashMemory[] should be aligned to the size of a Flash row */
  62:.\Generated_Source\PSoC4/BLE_gatt.c **** #pragma data_alignment=CY_FLASH_SIZEOF_ROW
  63:.\Generated_Source\PSoC4/BLE_gatt.c **** const uint8 cyBle_attValuesCCCDFlashMemory[CYBLE_GAP_MAX_BONDED_DEVICE + 1u][CYBLE_GATT_DB_CCCD_COU
  64:.\Generated_Source\PSoC4/BLE_gatt.c **** #endif /* defined(__GNUC__) || defined(__ARMCC_VERSION) */
  65:.\Generated_Source\PSoC4/BLE_gatt.c **** {
  66:.\Generated_Source\PSoC4/BLE_gatt.c ****     0x00u, 0x00u, 
  67:.\Generated_Source\PSoC4/BLE_gatt.c ****     0x00u, 0x00u, 
  68:.\Generated_Source\PSoC4/BLE_gatt.c **** },
  69:.\Generated_Source\PSoC4/BLE_gatt.c **** {
  70:.\Generated_Source\PSoC4/BLE_gatt.c ****     0x00u, 0x00u, 
  71:.\Generated_Source\PSoC4/BLE_gatt.c ****     0x00u, 0x00u, 
  72:.\Generated_Source\PSoC4/BLE_gatt.c **** },
  73:.\Generated_Source\PSoC4/BLE_gatt.c **** {
  74:.\Generated_Source\PSoC4/BLE_gatt.c ****     0x00u, 0x00u, 
  75:.\Generated_Source\PSoC4/BLE_gatt.c ****     0x00u, 0x00u, 
  76:.\Generated_Source\PSoC4/BLE_gatt.c **** },
  77:.\Generated_Source\PSoC4/BLE_gatt.c **** {
  78:.\Generated_Source\PSoC4/BLE_gatt.c ****     0x00u, 0x00u, 
  79:.\Generated_Source\PSoC4/BLE_gatt.c ****     0x00u, 0x00u, 
  80:.\Generated_Source\PSoC4/BLE_gatt.c **** },
  81:.\Generated_Source\PSoC4/BLE_gatt.c **** {
  82:.\Generated_Source\PSoC4/BLE_gatt.c ****     0x00u, 0x00u, 
  83:.\Generated_Source\PSoC4/BLE_gatt.c ****     0x00u, 0x00u, 
  84:.\Generated_Source\PSoC4/BLE_gatt.c **** },
  85:.\Generated_Source\PSoC4/BLE_gatt.c **** };
  86:.\Generated_Source\PSoC4/BLE_gatt.c **** uint8 cyBle_attValuesCCCD[CYBLE_GATT_DB_CCCD_COUNT];
  87:.\Generated_Source\PSoC4/BLE_gatt.c **** 
  88:.\Generated_Source\PSoC4/BLE_gatt.c **** const uint8 cyBle_attUuid128[][16u] = {
  89:.\Generated_Source\PSoC4/BLE_gatt.c ****     /* Serial Port */
ARM GAS  C:\Users\David\AppData\Local\Temp\ccMECm6e.s 			page 3


  90:.\Generated_Source\PSoC4/BLE_gatt.c ****     { 0xFBu, 0x34u, 0x9Bu, 0x5Fu, 0x80u, 0x00u, 0x00u, 0x80u, 0x00u, 0x10u, 0x00u, 0x00u, 0x00u, 0x
  91:.\Generated_Source\PSoC4/BLE_gatt.c ****     /* Rx */
  92:.\Generated_Source\PSoC4/BLE_gatt.c ****     { 0xFBu, 0x34u, 0x9Bu, 0x5Fu, 0x80u, 0x00u, 0x00u, 0x80u, 0x00u, 0x10u, 0x00u, 0x00u, 0x00u, 0x
  93:.\Generated_Source\PSoC4/BLE_gatt.c ****     /* Tx */
  94:.\Generated_Source\PSoC4/BLE_gatt.c ****     { 0xFBu, 0x34u, 0x9Bu, 0x5Fu, 0x80u, 0x00u, 0x00u, 0x80u, 0x00u, 0x10u, 0x00u, 0x00u, 0x00u, 0x
  95:.\Generated_Source\PSoC4/BLE_gatt.c **** };
  96:.\Generated_Source\PSoC4/BLE_gatt.c **** 
  97:.\Generated_Source\PSoC4/BLE_gatt.c **** CYBLE_GATTS_ATT_GEN_VAL_LEN_T cyBle_attValuesLen[CYBLE_GATT_DB_ATT_VAL_COUNT] = {
  98:.\Generated_Source\PSoC4/BLE_gatt.c ****     { 0x0006u, (void *)&cyBle_attValues[0] }, /* Device Name */
  99:.\Generated_Source\PSoC4/BLE_gatt.c ****     { 0x0002u, (void *)&cyBle_attValues[6] }, /* Appearance */
 100:.\Generated_Source\PSoC4/BLE_gatt.c ****     { 0x0008u, (void *)&cyBle_attValues[8] }, /* Peripheral Preferred Connection Parameters */
 101:.\Generated_Source\PSoC4/BLE_gatt.c ****     { 0x0004u, (void *)&cyBle_attValues[16] }, /* Service Changed */
 102:.\Generated_Source\PSoC4/BLE_gatt.c ****     { 0x0002u, (void *)&cyBle_attValuesCCCD[0] }, /* Client Characteristic Configuration */
 103:.\Generated_Source\PSoC4/BLE_gatt.c ****     { 0x0010u, (void *)&cyBle_attUuid128[0] }, /* Serial Port UUID */
 104:.\Generated_Source\PSoC4/BLE_gatt.c ****     { 0x0010u, (void *)&cyBle_attUuid128[1] }, /* Rx UUID */
 105:.\Generated_Source\PSoC4/BLE_gatt.c ****     { 0x0014u, (void *)&cyBle_attValues[20] }, /* Rx */
 106:.\Generated_Source\PSoC4/BLE_gatt.c ****     { 0x0010u, (void *)&cyBle_attUuid128[2] }, /* Tx UUID */
 107:.\Generated_Source\PSoC4/BLE_gatt.c ****     { 0x0014u, (void *)&cyBle_attValues[40] }, /* Tx */
 108:.\Generated_Source\PSoC4/BLE_gatt.c ****     { 0x0002u, (void *)&cyBle_attValuesCCCD[2] }, /* Client Characteristic Configuration */
 109:.\Generated_Source\PSoC4/BLE_gatt.c **** };
 110:.\Generated_Source\PSoC4/BLE_gatt.c **** 
 111:.\Generated_Source\PSoC4/BLE_gatt.c **** const CYBLE_GATTS_DB_T cyBle_gattDB[0x11u] = {
 112:.\Generated_Source\PSoC4/BLE_gatt.c ****     { 0x0001u, 0x2800u /* Primary service                     */, 0x00000001u /*        */, 0x0007u
 113:.\Generated_Source\PSoC4/BLE_gatt.c ****     { 0x0002u, 0x2803u /* Characteristic                      */, 0x00000201u /* rd     */, 0x0003u
 114:.\Generated_Source\PSoC4/BLE_gatt.c ****     { 0x0003u, 0x2A00u /* Device Name                         */, 0x00000201u /* rd     */, 0x0003u
 115:.\Generated_Source\PSoC4/BLE_gatt.c ****     { 0x0004u, 0x2803u /* Characteristic                      */, 0x00000201u /* rd     */, 0x0005u
 116:.\Generated_Source\PSoC4/BLE_gatt.c ****     { 0x0005u, 0x2A01u /* Appearance                          */, 0x00000201u /* rd     */, 0x0005u
 117:.\Generated_Source\PSoC4/BLE_gatt.c ****     { 0x0006u, 0x2803u /* Characteristic                      */, 0x00000201u /* rd     */, 0x0007u
 118:.\Generated_Source\PSoC4/BLE_gatt.c ****     { 0x0007u, 0x2A04u /* Peripheral Preferred Connection Par */, 0x00000201u /* rd     */, 0x0007u
 119:.\Generated_Source\PSoC4/BLE_gatt.c ****     { 0x0008u, 0x2800u /* Primary service                     */, 0x00000001u /*        */, 0x000Bu
 120:.\Generated_Source\PSoC4/BLE_gatt.c ****     { 0x0009u, 0x2803u /* Characteristic                      */, 0x00002201u /* rd,ind */, 0x000Bu
 121:.\Generated_Source\PSoC4/BLE_gatt.c ****     { 0x000Au, 0x2A05u /* Service Changed                     */, 0x00002201u /* rd,ind */, 0x000Bu
 122:.\Generated_Source\PSoC4/BLE_gatt.c ****     { 0x000Bu, 0x2902u /* Client Characteristic Configuration */, 0x00000A04u /* rd,wr  */, 0x000Bu
 123:.\Generated_Source\PSoC4/BLE_gatt.c ****     { 0x000Cu, 0x2800u /* Primary service                     */, 0x00080001u /*        */, 0x0011u
 124:.\Generated_Source\PSoC4/BLE_gatt.c ****     { 0x000Du, 0x2803u /* Characteristic                      */, 0x00000801u /* wr     */, 0x000Eu
 125:.\Generated_Source\PSoC4/BLE_gatt.c ****     { 0x000Eu, 0x0000u /* Rx                                  */, 0x00080802u /* wr     */, 0x000Eu
 126:.\Generated_Source\PSoC4/BLE_gatt.c ****     { 0x000Fu, 0x2803u /* Characteristic                      */, 0x00001001u /* ntf    */, 0x0011u
 127:.\Generated_Source\PSoC4/BLE_gatt.c ****     { 0x0010u, 0x0000u /* Tx                                  */, 0x00081000u /* ntf    */, 0x0011u
 128:.\Generated_Source\PSoC4/BLE_gatt.c ****     { 0x0011u, 0x2902u /* Client Characteristic Configuration */, 0x00000A04u /* rd,wr  */, 0x0011u
 129:.\Generated_Source\PSoC4/BLE_gatt.c **** };
 130:.\Generated_Source\PSoC4/BLE_gatt.c **** 
 131:.\Generated_Source\PSoC4/BLE_gatt.c **** 
 132:.\Generated_Source\PSoC4/BLE_gatt.c **** #endif /* (CYBLE_GATT_ROLE_SERVER) */
 133:.\Generated_Source\PSoC4/BLE_gatt.c **** 
 134:.\Generated_Source\PSoC4/BLE_gatt.c **** #if(CYBLE_GATT_ROLE_CLIENT)
 135:.\Generated_Source\PSoC4/BLE_gatt.c ****     
 136:.\Generated_Source\PSoC4/BLE_gatt.c **** CYBLE_CLIENT_STATE_T cyBle_clientState;
 137:.\Generated_Source\PSoC4/BLE_gatt.c **** CYBLE_GATTC_T cyBle_gattc;
 138:.\Generated_Source\PSoC4/BLE_gatt.c ****     
 139:.\Generated_Source\PSoC4/BLE_gatt.c **** #endif /* (CYBLE_GATT_ROLE_CLIENT) */
 140:.\Generated_Source\PSoC4/BLE_gatt.c **** 
 141:.\Generated_Source\PSoC4/BLE_gatt.c **** 
 142:.\Generated_Source\PSoC4/BLE_gatt.c **** #if(CYBLE_GATT_ROLE_SERVER)
 143:.\Generated_Source\PSoC4/BLE_gatt.c **** 
 144:.\Generated_Source\PSoC4/BLE_gatt.c **** /****************************************************************************** 
 145:.\Generated_Source\PSoC4/BLE_gatt.c **** ##Function Name: CyBle_GattsReInitGattDb
 146:.\Generated_Source\PSoC4/BLE_gatt.c **** *******************************************************************************
ARM GAS  C:\Users\David\AppData\Local\Temp\ccMECm6e.s 			page 4


 147:.\Generated_Source\PSoC4/BLE_gatt.c **** 
 148:.\Generated_Source\PSoC4/BLE_gatt.c **** Summary:
 149:.\Generated_Source\PSoC4/BLE_gatt.c ****  Reinitializes the GATT database.
 150:.\Generated_Source\PSoC4/BLE_gatt.c **** 
 151:.\Generated_Source\PSoC4/BLE_gatt.c **** Parameters:
 152:.\Generated_Source\PSoC4/BLE_gatt.c ****  None
 153:.\Generated_Source\PSoC4/BLE_gatt.c **** 
 154:.\Generated_Source\PSoC4/BLE_gatt.c **** Return:
 155:.\Generated_Source\PSoC4/BLE_gatt.c ****  CYBLE_API_RESULT_T: An API result states if the API succeeded or failed with
 156:.\Generated_Source\PSoC4/BLE_gatt.c ****  error codes:
 157:.\Generated_Source\PSoC4/BLE_gatt.c ****   * CYBLE_ERROR_OK: GATT database was reinitialized successfully
 158:.\Generated_Source\PSoC4/BLE_gatt.c ****   * CYBLE_ERROR_INVALID_STATE: If the function is called in any state except
 159:.\Generated_Source\PSoC4/BLE_gatt.c ****                                 CYBLE_STATE_DISCONNECTED.
 160:.\Generated_Source\PSoC4/BLE_gatt.c ****   * Any of the CyBle_GattsDbRegister() stack API function return values.
 161:.\Generated_Source\PSoC4/BLE_gatt.c **** 
 162:.\Generated_Source\PSoC4/BLE_gatt.c **** ******************************************************************************/
 163:.\Generated_Source\PSoC4/BLE_gatt.c **** CYBLE_API_RESULT_T CyBle_GattsReInitGattDb(void)
 164:.\Generated_Source\PSoC4/BLE_gatt.c **** {
  26              		.loc 1 164 0
  27              		.cfi_startproc
  28 0000 08B5     		push	{r3, lr}
  29              		.cfi_def_cfa_offset 8
  30              		.cfi_offset 3, -8
  31              		.cfi_offset 14, -4
 165:.\Generated_Source\PSoC4/BLE_gatt.c ****     CYBLE_API_RESULT_T apiResult;
 166:.\Generated_Source\PSoC4/BLE_gatt.c ****     
 167:.\Generated_Source\PSoC4/BLE_gatt.c ****     if(CYBLE_STATE_DISCONNECTED == CyBle_GetState())
  32              		.loc 1 167 0
  33 0002 064B     		ldr	r3, .L4
  34 0004 1B78     		ldrb	r3, [r3]
  35 0006 042B     		cmp	r3, #4
  36 0008 05D1     		bne	.L3
 168:.\Generated_Source\PSoC4/BLE_gatt.c ****     {
 169:.\Generated_Source\PSoC4/BLE_gatt.c ****         apiResult = CyBle_GattsDbRegister(cyBle_gattDB, CYBLE_GATT_DB_INDEX_COUNT, CYBLE_GATT_DB_MA
  37              		.loc 1 169 0
  38 000a 0548     		ldr	r0, .L4+4
  39 000c 1121     		mov	r1, #17
  40 000e 1422     		mov	r2, #20
  41 0010 FFF7FEFF 		bl	CyBle_GattsDbRegister
  42              	.LVL0:
  43 0014 01E0     		b	.L2
  44              	.LVL1:
  45              	.L3:
 170:.\Generated_Source\PSoC4/BLE_gatt.c ****     }
 171:.\Generated_Source\PSoC4/BLE_gatt.c ****     else
 172:.\Generated_Source\PSoC4/BLE_gatt.c ****     {
 173:.\Generated_Source\PSoC4/BLE_gatt.c ****         apiResult = CYBLE_ERROR_INVALID_STATE;
  46              		.loc 1 173 0
  47 0016 0420     		mov	r0, #4
  48 0018 FF30     		add	r0, r0, #255
  49              	.L2:
  50              	.LVL2:
 174:.\Generated_Source\PSoC4/BLE_gatt.c ****     }
 175:.\Generated_Source\PSoC4/BLE_gatt.c ****     
 176:.\Generated_Source\PSoC4/BLE_gatt.c ****     return(apiResult);
 177:.\Generated_Source\PSoC4/BLE_gatt.c **** }
  51              		.loc 1 177 0
ARM GAS  C:\Users\David\AppData\Local\Temp\ccMECm6e.s 			page 5


  52              		@ sp needed
  53 001a 08BD     		pop	{r3, pc}
  54              	.L5:
  55              		.align	2
  56              	.L4:
  57 001c 00000000 		.word	cyBle_state
  58 0020 00000000 		.word	.LANCHOR0
  59              		.cfi_endproc
  60              	.LFE2:
  61              		.size	CyBle_GattsReInitGattDb, .-CyBle_GattsReInitGattDb
  62              		.section	.text.CyBle_GattsWriteEventHandler,"ax",%progbits
  63              		.align	2
  64              		.global	CyBle_GattsWriteEventHandler
  65              		.code	16
  66              		.thumb_func
  67              		.type	CyBle_GattsWriteEventHandler, %function
  68              	CyBle_GattsWriteEventHandler:
  69              	.LFB3:
 178:.\Generated_Source\PSoC4/BLE_gatt.c **** 
 179:.\Generated_Source\PSoC4/BLE_gatt.c **** 
 180:.\Generated_Source\PSoC4/BLE_gatt.c **** /****************************************************************************** 
 181:.\Generated_Source\PSoC4/BLE_gatt.c **** ##Function Name: CyBle_GattsWriteEventHandler
 182:.\Generated_Source\PSoC4/BLE_gatt.c **** *******************************************************************************
 183:.\Generated_Source\PSoC4/BLE_gatt.c **** 
 184:.\Generated_Source\PSoC4/BLE_gatt.c **** Summary:
 185:.\Generated_Source\PSoC4/BLE_gatt.c ****  Handles the Write Request Event for GATT service.
 186:.\Generated_Source\PSoC4/BLE_gatt.c **** 
 187:.\Generated_Source\PSoC4/BLE_gatt.c **** Parameters:
 188:.\Generated_Source\PSoC4/BLE_gatt.c ****  *eventParam: The pointer to the data structure specified by the event.
 189:.\Generated_Source\PSoC4/BLE_gatt.c **** 
 190:.\Generated_Source\PSoC4/BLE_gatt.c **** Return:
 191:.\Generated_Source\PSoC4/BLE_gatt.c ****  * CYBLE_GATT_ERR_CODE_T: An API result returns one of the following status 
 192:.\Generated_Source\PSoC4/BLE_gatt.c ****     values
 193:.\Generated_Source\PSoC4/BLE_gatt.c ****  * CYBLE_GATT_ERR_NONE - Write is successful.
 194:.\Generated_Source\PSoC4/BLE_gatt.c **** 
 195:.\Generated_Source\PSoC4/BLE_gatt.c **** ******************************************************************************/
 196:.\Generated_Source\PSoC4/BLE_gatt.c **** CYBLE_GATT_ERR_CODE_T CyBle_GattsWriteEventHandler(CYBLE_GATTS_WRITE_REQ_PARAM_T *eventParam)
 197:.\Generated_Source\PSoC4/BLE_gatt.c **** {
  70              		.loc 1 197 0
  71              		.cfi_startproc
  72              	.LVL3:
  73 0000 38B5     		push	{r3, r4, r5, lr}
  74              		.cfi_def_cfa_offset 16
  75              		.cfi_offset 3, -16
  76              		.cfi_offset 4, -12
  77              		.cfi_offset 5, -8
  78              		.cfi_offset 14, -4
  79 0002 041C     		mov	r4, r0
  80              	.LVL4:
 198:.\Generated_Source\PSoC4/BLE_gatt.c ****     CYBLE_GATT_ERR_CODE_T gattErr = CYBLE_GATT_ERR_NONE;
 199:.\Generated_Source\PSoC4/BLE_gatt.c ****     
 200:.\Generated_Source\PSoC4/BLE_gatt.c ****     /* Client Characteristic Configuration descriptor write request */
 201:.\Generated_Source\PSoC4/BLE_gatt.c ****     if(eventParam->handleValPair.attrHandle == cyBle_gatts.cccdHandle)
  81              		.loc 1 201 0
  82 0004 8389     		ldrh	r3, [r0, #12]
  83 0006 0B2B     		cmp	r3, #11
  84 0008 1FD1     		bne	.L10
ARM GAS  C:\Users\David\AppData\Local\Temp\ccMECm6e.s 			page 6


 202:.\Generated_Source\PSoC4/BLE_gatt.c ****     {
 203:.\Generated_Source\PSoC4/BLE_gatt.c ****         /* Store value to database */
 204:.\Generated_Source\PSoC4/BLE_gatt.c ****         gattErr = CyBle_GattsWriteAttributeValue(&eventParam->handleValPair, 0u, 
  85              		.loc 1 204 0
  86 000a 0430     		add	r0, r0, #4
  87              	.LVL5:
  88 000c 0021     		mov	r1, #0
  89 000e 221C     		mov	r2, r4
  90 0010 4023     		mov	r3, #64
  91 0012 FFF7FEFF 		bl	CyBle_GattsWriteAttributeValue
  92              	.LVL6:
  93 0016 051E     		sub	r5, r0, #0
  94              	.LVL7:
 205:.\Generated_Source\PSoC4/BLE_gatt.c ****                         &eventParam->connHandle, CYBLE_GATT_DB_PEER_INITIATED);
 206:.\Generated_Source\PSoC4/BLE_gatt.c ****         
 207:.\Generated_Source\PSoC4/BLE_gatt.c ****         if(CYBLE_GATT_ERR_NONE == gattErr)
  95              		.loc 1 207 0
  96 0018 11D1     		bne	.L8
 208:.\Generated_Source\PSoC4/BLE_gatt.c ****         {
 209:.\Generated_Source\PSoC4/BLE_gatt.c ****             if(CYBLE_IS_INDICATION_ENABLED_IN_PTR(eventParam->handleValPair.value.val))
  97              		.loc 1 209 0
  98 001a 6068     		ldr	r0, [r4, #4]
  99              	.LVL8:
 100 001c FFF7FEFF 		bl	CyBle_Get16ByPtr
 101              	.LVL9:
 102 0020 8307     		lsl	r3, r0, #30
 103 0022 06D5     		bpl	.L9
 210:.\Generated_Source\PSoC4/BLE_gatt.c ****             {
 211:.\Generated_Source\PSoC4/BLE_gatt.c ****                 CyBle_ApplCallback((uint32)CYBLE_EVT_GATTS_INDICATION_ENABLED, eventParam);
 104              		.loc 1 211 0
 105 0024 0A4B     		ldr	r3, .L11
 106 0026 1B68     		ldr	r3, [r3]
 107 0028 8220     		mov	r0, #130
 108 002a 4000     		lsl	r0, r0, #1
 109 002c 211C     		mov	r1, r4
 110 002e 9847     		blx	r3
 111              	.LVL10:
 112 0030 05E0     		b	.L8
 113              	.L9:
 212:.\Generated_Source\PSoC4/BLE_gatt.c ****             }
 213:.\Generated_Source\PSoC4/BLE_gatt.c ****             else
 214:.\Generated_Source\PSoC4/BLE_gatt.c ****             {
 215:.\Generated_Source\PSoC4/BLE_gatt.c ****                 CyBle_ApplCallback((uint32)CYBLE_EVT_GATTS_INDICATION_DISABLED, eventParam);
 114              		.loc 1 215 0
 115 0032 074B     		ldr	r3, .L11
 116 0034 1B68     		ldr	r3, [r3]
 117 0036 0620     		mov	r0, #6
 118 0038 FF30     		add	r0, r0, #255
 119 003a 211C     		mov	r1, r4
 120 003c 9847     		blx	r3
 121              	.LVL11:
 122              	.L8:
 216:.\Generated_Source\PSoC4/BLE_gatt.c ****             }
 217:.\Generated_Source\PSoC4/BLE_gatt.c ****         }
 218:.\Generated_Source\PSoC4/BLE_gatt.c ****         cyBle_eventHandlerFlag &= (uint8)~CYBLE_CALLBACK;
 123              		.loc 1 218 0
 124 003e 054B     		ldr	r3, .L11+4
ARM GAS  C:\Users\David\AppData\Local\Temp\ccMECm6e.s 			page 7


 125 0040 1A78     		ldrb	r2, [r3]
 126 0042 0121     		mov	r1, #1
 127 0044 8A43     		bic	r2, r1
 128 0046 1A70     		strb	r2, [r3]
 129 0048 00E0     		b	.L7
 130              	.LVL12:
 131              	.L10:
 198:.\Generated_Source\PSoC4/BLE_gatt.c ****     CYBLE_GATT_ERR_CODE_T gattErr = CYBLE_GATT_ERR_NONE;
 132              		.loc 1 198 0
 133 004a 0025     		mov	r5, #0
 134              	.LVL13:
 135              	.L7:
 219:.\Generated_Source\PSoC4/BLE_gatt.c ****     }
 220:.\Generated_Source\PSoC4/BLE_gatt.c ****     return (gattErr);
 221:.\Generated_Source\PSoC4/BLE_gatt.c **** }
 136              		.loc 1 221 0
 137 004c 281C     		mov	r0, r5
 138              		@ sp needed
 139              	.LVL14:
 140              	.LVL15:
 141 004e 38BD     		pop	{r3, r4, r5, pc}
 142              	.L12:
 143              		.align	2
 144              	.L11:
 145 0050 00000000 		.word	CyBle_ApplCallback
 146 0054 00000000 		.word	cyBle_eventHandlerFlag
 147              		.cfi_endproc
 148              	.LFE3:
 149              		.size	CyBle_GattsWriteEventHandler, .-CyBle_GattsWriteEventHandler
 150              		.global	cyBle_gattDB
 151              		.global	cyBle_attValuesLen
 152              		.global	cyBle_attUuid128
 153              		.comm	cyBle_attValuesCCCD,4,4
 154              		.global	cyBle_attValuesCCCDFlashMemory
 155              		.global	cyBle_gatts
 156              		.comm	cyBle_state,1,1
 157              		.section	.rodata
 158              		.align	7
 159              		.set	.LANCHOR0,. + 0
 160              		.type	cyBle_gattDB, %object
 161              		.size	cyBle_gattDB, 340
 162              	cyBle_gattDB:
 163 0000 0100     		.short	1
 164 0002 0028     		.short	10240
 165 0004 01000000 		.word	1
 166 0008 0700     		.short	7
 167 000a 0000     		.space	2
 168 000c 0018     		.short	6144
 169 000e 0000     		.space	2
 170 0010 00000000 		.word	0
 171 0014 0200     		.short	2
 172 0016 0328     		.short	10243
 173 0018 01020000 		.word	513
 174 001c 0300     		.short	3
 175 001e 0000     		.space	2
 176 0020 002A     		.short	10752
 177 0022 0000     		.space	2
ARM GAS  C:\Users\David\AppData\Local\Temp\ccMECm6e.s 			page 8


 178 0024 00000000 		.word	0
 179 0028 0300     		.short	3
 180 002a 002A     		.short	10752
 181 002c 01020000 		.word	513
 182 0030 0300     		.short	3
 183 0032 0000     		.space	2
 184 0034 0600     		.short	6
 185 0036 0000     		.space	2
 186 0038 00000000 		.word	cyBle_attValuesLen
 187 003c 0400     		.short	4
 188 003e 0328     		.short	10243
 189 0040 01020000 		.word	513
 190 0044 0500     		.short	5
 191 0046 0000     		.space	2
 192 0048 012A     		.short	10753
 193 004a 0000     		.space	2
 194 004c 00000000 		.word	0
 195 0050 0500     		.short	5
 196 0052 012A     		.short	10753
 197 0054 01020000 		.word	513
 198 0058 0500     		.short	5
 199 005a 0000     		.space	2
 200 005c 0200     		.short	2
 201 005e 0000     		.space	2
 202 0060 08000000 		.word	cyBle_attValuesLen+8
 203 0064 0600     		.short	6
 204 0066 0328     		.short	10243
 205 0068 01020000 		.word	513
 206 006c 0700     		.short	7
 207 006e 0000     		.space	2
 208 0070 042A     		.short	10756
 209 0072 0000     		.space	2
 210 0074 00000000 		.word	0
 211 0078 0700     		.short	7
 212 007a 042A     		.short	10756
 213 007c 01020000 		.word	513
 214 0080 0700     		.short	7
 215 0082 0000     		.space	2
 216 0084 0800     		.short	8
 217 0086 0000     		.space	2
 218 0088 10000000 		.word	cyBle_attValuesLen+16
 219 008c 0800     		.short	8
 220 008e 0028     		.short	10240
 221 0090 01000000 		.word	1
 222 0094 0B00     		.short	11
 223 0096 0000     		.space	2
 224 0098 0118     		.short	6145
 225 009a 0000     		.space	2
 226 009c 00000000 		.word	0
 227 00a0 0900     		.short	9
 228 00a2 0328     		.short	10243
 229 00a4 01220000 		.word	8705
 230 00a8 0B00     		.short	11
 231 00aa 0000     		.space	2
 232 00ac 052A     		.short	10757
 233 00ae 0000     		.space	2
 234 00b0 00000000 		.word	0
ARM GAS  C:\Users\David\AppData\Local\Temp\ccMECm6e.s 			page 9


 235 00b4 0A00     		.short	10
 236 00b6 052A     		.short	10757
 237 00b8 01220000 		.word	8705
 238 00bc 0B00     		.short	11
 239 00be 0000     		.space	2
 240 00c0 0400     		.short	4
 241 00c2 0000     		.space	2
 242 00c4 18000000 		.word	cyBle_attValuesLen+24
 243 00c8 0B00     		.short	11
 244 00ca 0229     		.short	10498
 245 00cc 040A0000 		.word	2564
 246 00d0 0B00     		.short	11
 247 00d2 0000     		.space	2
 248 00d4 0200     		.short	2
 249 00d6 0000     		.space	2
 250 00d8 20000000 		.word	cyBle_attValuesLen+32
 251 00dc 0C00     		.short	12
 252 00de 0028     		.short	10240
 253 00e0 01000800 		.word	524289
 254 00e4 1100     		.short	17
 255 00e6 0000     		.space	2
 256 00e8 1000     		.short	16
 257 00ea 0000     		.space	2
 258 00ec 28000000 		.word	cyBle_attValuesLen+40
 259 00f0 0D00     		.short	13
 260 00f2 0328     		.short	10243
 261 00f4 01080000 		.word	2049
 262 00f8 0E00     		.short	14
 263 00fa 0000     		.space	2
 264 00fc 1000     		.short	16
 265 00fe 0000     		.space	2
 266 0100 30000000 		.word	cyBle_attValuesLen+48
 267 0104 0E00     		.short	14
 268 0106 0000     		.short	0
 269 0108 02080800 		.word	526338
 270 010c 0E00     		.short	14
 271 010e 0000     		.space	2
 272 0110 1400     		.short	20
 273 0112 0000     		.space	2
 274 0114 38000000 		.word	cyBle_attValuesLen+56
 275 0118 0F00     		.short	15
 276 011a 0328     		.short	10243
 277 011c 01100000 		.word	4097
 278 0120 1100     		.short	17
 279 0122 0000     		.space	2
 280 0124 1000     		.short	16
 281 0126 0000     		.space	2
 282 0128 40000000 		.word	cyBle_attValuesLen+64
 283 012c 1000     		.short	16
 284 012e 0000     		.short	0
 285 0130 00100800 		.word	528384
 286 0134 1100     		.short	17
 287 0136 0000     		.space	2
 288 0138 1400     		.short	20
 289 013a 0000     		.space	2
 290 013c 48000000 		.word	cyBle_attValuesLen+72
 291 0140 1100     		.short	17
ARM GAS  C:\Users\David\AppData\Local\Temp\ccMECm6e.s 			page 10


 292 0142 0229     		.short	10498
 293 0144 040A0000 		.word	2564
 294 0148 1100     		.short	17
 295 014a 0000     		.space	2
 296 014c 0200     		.short	2
 297 014e 0000     		.space	2
 298 0150 50000000 		.word	cyBle_attValuesLen+80
 299              		.type	cyBle_attUuid128, %object
 300              		.size	cyBle_attUuid128, 48
 301              	cyBle_attUuid128:
 302 0154 FB       		.byte	-5
 303 0155 34       		.byte	52
 304 0156 9B       		.byte	-101
 305 0157 5F       		.byte	95
 306 0158 80       		.byte	-128
 307 0159 00       		.byte	0
 308 015a 00       		.byte	0
 309 015b 80       		.byte	-128
 310 015c 00       		.byte	0
 311 015d 10       		.byte	16
 312 015e 00       		.byte	0
 313 015f 00       		.byte	0
 314 0160 00       		.byte	0
 315 0161 00       		.byte	0
 316 0162 00       		.byte	0
 317 0163 00       		.byte	0
 318 0164 FB       		.byte	-5
 319 0165 34       		.byte	52
 320 0166 9B       		.byte	-101
 321 0167 5F       		.byte	95
 322 0168 80       		.byte	-128
 323 0169 00       		.byte	0
 324 016a 00       		.byte	0
 325 016b 80       		.byte	-128
 326 016c 00       		.byte	0
 327 016d 10       		.byte	16
 328 016e 00       		.byte	0
 329 016f 00       		.byte	0
 330 0170 00       		.byte	0
 331 0171 00       		.byte	0
 332 0172 00       		.byte	0
 333 0173 00       		.byte	0
 334 0174 FB       		.byte	-5
 335 0175 34       		.byte	52
 336 0176 9B       		.byte	-101
 337 0177 5F       		.byte	95
 338 0178 80       		.byte	-128
 339 0179 00       		.byte	0
 340 017a 00       		.byte	0
 341 017b 80       		.byte	-128
 342 017c 00       		.byte	0
 343 017d 10       		.byte	16
 344 017e 00       		.byte	0
 345 017f 00       		.byte	0
 346 0180 00       		.byte	0
 347 0181 00       		.byte	0
 348 0182 00       		.byte	0
ARM GAS  C:\Users\David\AppData\Local\Temp\ccMECm6e.s 			page 11


 349 0183 00       		.byte	0
 350 0184 00000000 		.space	124
 350      00000000 
 350      00000000 
 350      00000000 
 350      00000000 
 351              		.type	cyBle_attValuesCCCDFlashMemory, %object
 352              		.size	cyBle_attValuesCCCDFlashMemory, 20
 353              	cyBle_attValuesCCCDFlashMemory:
 354 0200 00000000 		.space	20
 354      00000000 
 354      00000000 
 354      00000000 
 354      00000000 
 355              		.type	cyBle_gatts, %object
 356              		.size	cyBle_gatts, 6
 357              	cyBle_gatts:
 358 0214 0800     		.short	8
 359 0216 0A00     		.short	10
 360 0218 0B00     		.short	11
 361 021a 00000000 		.data
 361      00000000 
 361      00000000 
 361      00000000 
 361      00000000 
 362              		.align	2
 363              		.type	cyBle_attValuesLen, %object
 364              		.size	cyBle_attValuesLen, 88
 365              	cyBle_attValuesLen:
 366 0000 0600     		.short	6
 367 0002 0000     		.space	2
 368 0004 58000000 		.word	cyBle_attValues
 369 0008 0200     		.short	2
 370 000a 0000     		.space	2
 371 000c 5E000000 		.word	cyBle_attValues+6
 372 0010 0800     		.short	8
 373 0012 0000     		.space	2
 374 0014 60000000 		.word	cyBle_attValues+8
 375 0018 0400     		.short	4
 376 001a 0000     		.space	2
 377 001c 68000000 		.word	cyBle_attValues+16
 378 0020 0200     		.short	2
 379 0022 0000     		.space	2
 380 0024 00000000 		.word	cyBle_attValuesCCCD
 381 0028 1000     		.short	16
 382 002a 0000     		.space	2
 383 002c 00000000 		.word	cyBle_attUuid128
 384 0030 1000     		.short	16
 385 0032 0000     		.space	2
 386 0034 10000000 		.word	cyBle_attUuid128+16
 387 0038 1400     		.short	20
 388 003a 0000     		.space	2
 389 003c 6C000000 		.word	cyBle_attValues+20
 390 0040 1000     		.short	16
 391 0042 0000     		.space	2
 392 0044 20000000 		.word	cyBle_attUuid128+32
 393 0048 1400     		.short	20
ARM GAS  C:\Users\David\AppData\Local\Temp\ccMECm6e.s 			page 12


 394 004a 0000     		.space	2
 395 004c 80000000 		.word	cyBle_attValues+40
 396 0050 0200     		.short	2
 397 0052 0000     		.space	2
 398 0054 02000000 		.word	cyBle_attValuesCCCD+2
 399              		.type	cyBle_attValues, %object
 400              		.size	cyBle_attValues, 60
 401              	cyBle_attValues:
 402 0058 44       		.byte	68
 403 0059 61       		.byte	97
 404 005a 74       		.byte	116
 405 005b 73       		.byte	115
 406 005c 6F       		.byte	111
 407 005d 6E       		.byte	110
 408 005e 00       		.byte	0
 409 005f 00       		.byte	0
 410 0060 06       		.byte	6
 411 0061 00       		.byte	0
 412 0062 20       		.byte	32
 413 0063 00       		.byte	0
 414 0064 00       		.byte	0
 415 0065 00       		.byte	0
 416 0066 E8       		.byte	-24
 417 0067 03       		.byte	3
 418 0068 00       		.byte	0
 419 0069 00       		.byte	0
 420 006a 00       		.byte	0
 421 006b 00       		.byte	0
 422 006c 00       		.byte	0
 423 006d 00       		.byte	0
 424 006e 00       		.byte	0
 425 006f 00       		.byte	0
 426 0070 00       		.byte	0
 427 0071 00       		.byte	0
 428 0072 00       		.byte	0
 429 0073 00       		.byte	0
 430 0074 00       		.byte	0
 431 0075 00       		.byte	0
 432 0076 00       		.byte	0
 433 0077 00       		.byte	0
 434 0078 00       		.byte	0
 435 0079 00       		.byte	0
 436 007a 00       		.byte	0
 437 007b 00       		.byte	0
 438 007c 00       		.byte	0
 439 007d 00       		.byte	0
 440 007e 00       		.byte	0
 441 007f 00       		.byte	0
 442 0080 00       		.byte	0
 443 0081 00       		.byte	0
 444 0082 00       		.byte	0
 445 0083 00       		.byte	0
 446 0084 00       		.byte	0
 447 0085 00       		.byte	0
 448 0086 00       		.byte	0
 449 0087 00       		.byte	0
 450 0088 00       		.byte	0
ARM GAS  C:\Users\David\AppData\Local\Temp\ccMECm6e.s 			page 13


 451 0089 00       		.byte	0
 452 008a 00       		.byte	0
 453 008b 00       		.byte	0
 454 008c 00       		.byte	0
 455 008d 00       		.byte	0
 456 008e 00       		.byte	0
 457 008f 00       		.byte	0
 458 0090 00       		.byte	0
 459 0091 00       		.byte	0
 460 0092 00       		.byte	0
 461 0093 00       		.byte	0
 462              		.text
 463              	.Letext0:
 464              		.file 2 ".\\Generated_Source\\PSoC4\\cytypes.h"
 465              		.file 3 ".\\Generated_Source\\PSoC4\\BLE_Stack.h"
 466              		.file 4 ".\\Generated_Source\\PSoC4\\BLE_StackGatt.h"
 467              		.file 5 ".\\Generated_Source\\PSoC4\\BLE_StackGattServer.h"
 468              		.file 6 ".\\Generated_Source\\PSoC4\\BLE_StackGattDb.h"
 469              		.file 7 ".\\Generated_Source\\PSoC4\\BLE.h"
 470              		.file 8 ".\\Generated_Source\\PSoC4\\BLE_gatt.h"
 471              		.file 9 ".\\Generated_Source\\PSoC4\\BLE_eventHandler.h"