ARM GAS  C:\Users\David\AppData\Local\Temp\ccZhbYDC.s 			page 1


   1              		.cpu cortex-m0
   2              		.fpu softvfp
   3              		.eabi_attribute 20, 1
   4              		.eabi_attribute 21, 1
   5              		.eabi_attribute 23, 3
   6              		.eabi_attribute 24, 1
   7              		.eabi_attribute 25, 1
   8              		.eabi_attribute 26, 1
   9              		.eabi_attribute 30, 1
  10              		.eabi_attribute 34, 0
  11              		.eabi_attribute 18, 4
  12              		.code	16
  13              		.file	"bleconnection.c"
  14              		.text
  15              	.Ltext0:
  16              		.cfi_sections	.debug_frame
  17              		.section	.text.BleConnectionInit,"ax",%progbits
  18              		.align	2
  19              		.global	BleConnectionInit
  20              		.code	16
  21              		.thumb_func
  22              		.type	BleConnectionInit, %function
  23              	BleConnectionInit:
  24              	.LFB35:
  25              		.file 1 ".\\bleconnection.c"
   1:.\bleconnection.c **** /*! \file bleconnection.c  
   2:.\bleconnection.c ****   * \brief BLE connection management library
   3:.\bleconnection.c ****   */
   4:.\bleconnection.c **** 
   5:.\bleconnection.c **** /*****************************************************************************
   6:.\bleconnection.c **** * Included headers
   7:.\bleconnection.c **** *****************************************************************************/
   8:.\bleconnection.c **** #include "bleconnection.h"
   9:.\bleconnection.c **** 
  10:.\bleconnection.c **** /*****************************************************************************
  11:.\bleconnection.c **** * Global variables
  12:.\bleconnection.c **** *****************************************************************************/
  13:.\bleconnection.c **** /* All zeros passed as  argument passed to CyBle_GapRemoveDeviceFromWhiteList for 
  14:.\bleconnection.c **** removing all the bonding data stored */
  15:.\bleconnection.c **** CYBLE_GAP_BD_ADDR_T clearAllDevices = {{0,0,0,0,0,0},0};
  16:.\bleconnection.c **** 
  17:.\bleconnection.c **** /*****************************************************************************
  18:.\bleconnection.c **** * Private prototypes
  19:.\bleconnection.c **** *****************************************************************************/
  20:.\bleconnection.c **** /*! Function that update the bonded device list in flash
  21:.\bleconnection.c ****  *  \param  ble pointer to the bleConnection_t structure  
  22:.\bleconnection.c ****  *  \return bleConnectionError_t status
  23:.\bleconnection.c ****  */
  24:.\bleconnection.c **** bleConnectionError_t _BleConnectionUpdateBondedDeviceList(bleConnection_t* ble);
  25:.\bleconnection.c **** 
  26:.\bleconnection.c **** /*! Function to start advertisment using a private address
  27:.\bleconnection.c ****  *  \param  ble pointer to the bleConnection_t structure  
  28:.\bleconnection.c ****  *  \return bleConnectionError_t status
  29:.\bleconnection.c ****  */
  30:.\bleconnection.c **** bleConnectionError_t _BleConnectionStartPrivateAdvertising(bleConnection_t* ble);
  31:.\bleconnection.c **** 
  32:.\bleconnection.c **** /*! Function to start advertisment using a private address
ARM GAS  C:\Users\David\AppData\Local\Temp\ccZhbYDC.s 			page 2


  33:.\bleconnection.c ****  *  \param  ble pointer to the bleConnection_t structure  
  34:.\bleconnection.c ****  *  \return bleConnectionError_t status
  35:.\bleconnection.c ****  */
  36:.\bleconnection.c **** bleConnectionError_t _BleConnectionStartPublicAdvertising(bleConnection_t* ble);
  37:.\bleconnection.c **** /*****************************************************************************
  38:.\bleconnection.c **** * Public functions
  39:.\bleconnection.c **** *****************************************************************************/
  40:.\bleconnection.c **** /*****************************************************************************
  41:.\bleconnection.c **** * Function Name: BleConnectionInit
  42:.\bleconnection.c **** ******************************************************************************
  43:.\bleconnection.c **** *
  44:.\bleconnection.c **** * Summary:
  45:.\bleconnection.c **** *  Function that initialize the bleConnection structure
  46:.\bleconnection.c **** *  and the main stack event handler.
  47:.\bleconnection.c **** *
  48:.\bleconnection.c **** * Parameters:
  49:.\bleconnection.c **** *  ble - pointer to the bleConnection_t structure 
  50:.\bleconnection.c **** *  stackEventHandler - main stack handler  
  51:.\bleconnection.c **** *
  52:.\bleconnection.c **** * Return:
  53:.\bleconnection.c **** *  bleConnectionError_t
  54:.\bleconnection.c **** *
  55:.\bleconnection.c **** *****************************************************************************/
  56:.\bleconnection.c **** bleConnectionError_t BleConnectionInit(bleConnection_t* ble, CYBLE_CALLBACK_T stackEventHandler){
  26              		.loc 1 56 0
  27              		.cfi_startproc
  28              	.LVL0:
  29 0000 70B5     		push	{r4, r5, r6, lr}
  30              		.cfi_def_cfa_offset 16
  31              		.cfi_offset 4, -16
  32              		.cfi_offset 5, -12
  33              		.cfi_offset 6, -8
  34              		.cfi_offset 14, -4
  35 0002 94B0     		sub	sp, sp, #80
  36              		.cfi_def_cfa_offset 96
  37 0004 041C     		mov	r4, r0
  38              	.LVL1:
  57:.\bleconnection.c ****     CYBLE_API_RESULT_T apiResult;
  58:.\bleconnection.c ****     bleConnectionError_t status = ERROR_BLE_CONNECTION_NONE;
  59:.\bleconnection.c ****     uint8_t bondedDeviceKeysFlag;
  60:.\bleconnection.c ****     CYBLE_GAP_BD_ADDR_T bondedDeviceAddress;
  61:.\bleconnection.c ****     CYBLE_GAP_SMP_KEY_DIST_T securityKeys;
  62:.\bleconnection.c ****     
  63:.\bleconnection.c ****     /*Ble stack*/
  64:.\bleconnection.c ****     apiResult = CyBle_Start(stackEventHandler);
  39              		.loc 1 64 0
  40 0006 081C     		mov	r0, r1
  41              	.LVL2:
  42 0008 FFF7FEFF 		bl	CyBle_Start
  43              	.LVL3:
  65:.\bleconnection.c ****     if(apiResult != CYBLE_ERROR_OK) {
  44              		.loc 1 65 0
  45 000c 0028     		cmp	r0, #0
  46 000e 01D1     		bne	.L5
  58:.\bleconnection.c ****     bleConnectionError_t status = ERROR_BLE_CONNECTION_NONE;
  47              		.loc 1 58 0
  48 0010 0025     		mov	r5, #0
ARM GAS  C:\Users\David\AppData\Local\Temp\ccZhbYDC.s 			page 3


  49 0012 00E0     		b	.L2
  50              	.L5:
  66:.\bleconnection.c ****         status = ERROR_BLE_CONNECTION_INIT;
  51              		.loc 1 66 0
  52 0014 0125     		mov	r5, #1
  53              	.L2:
  54              	.LVL4:
  67:.\bleconnection.c ****     }
  68:.\bleconnection.c **** 
  69:.\bleconnection.c ****     /*Populate current bonded device list locally*/
  70:.\bleconnection.c ****     apiResult = CyBle_GapGetBondedDevicesList(&(ble->gapBondedDeviceList));
  55              		.loc 1 70 0
  56 0016 601C     		add	r0, r4, #1
  57              	.LVL5:
  58 0018 FFF7FEFF 		bl	CyBle_GapGetBondedDevicesList
  59              	.LVL6:
  71:.\bleconnection.c ****     if(apiResult != CYBLE_ERROR_OK){
  60              		.loc 1 71 0
  61 001c 0028     		cmp	r0, #0
  62 001e 00D0     		beq	.L3
  72:.\bleconnection.c ****         status = ERROR_BLE_CONNECTION_GET_BONDED_DEVICE_LIST;
  63              		.loc 1 72 0
  64 0020 0625     		mov	r5, #6
  65              	.LVL7:
  66              	.L3:
  73:.\bleconnection.c ****     }
  74:.\bleconnection.c ****     
  75:.\bleconnection.c ****     /* Check if we have bounded device*/
  76:.\bleconnection.c ****     if(ble->gapBondedDeviceList.count != 0){
  67              		.loc 1 76 0
  68 0022 6378     		ldrb	r3, [r4, #1]
  69 0024 002B     		cmp	r3, #0
  70 0026 1CD0     		beq	.L4
  77:.\bleconnection.c ****         
  78:.\bleconnection.c ****         /* Get last bonded device */
  79:.\bleconnection.c ****         memcpy(bondedDeviceAddress.bdAddr, ble->gapBondedDeviceList.bdAddrList[0].bdAddr, 6);
  71              		.loc 1 79 0
  72 0028 12AE     		add	r6, sp, #72
  73 002a A11C     		add	r1, r4, #2
  74 002c 301C     		mov	r0, r6
  75              	.LVL8:
  76 002e 0622     		mov	r2, #6
  77 0030 FFF7FEFF 		bl	memcpy
  78              	.LVL9:
  80:.\bleconnection.c ****         bondedDeviceAddress.type = ble->gapBondedDeviceList.bdAddrList[0].type;
  79              		.loc 1 80 0
  80 0034 237A     		ldrb	r3, [r4, #8]
  81 0036 B371     		strb	r3, [r6, #6]
  81:.\bleconnection.c ****         
  82:.\bleconnection.c ****         /* Get BD handle */
  83:.\bleconnection.c ****         CyBle_GapGetPeerBdHandle(&ble->bondedDeviceBdHandle, &bondedDeviceAddress);
  82              		.loc 1 83 0
  83 0038 201C     		mov	r0, r4
  84 003a 2E30     		add	r0, r0, #46
  85 003c 311C     		mov	r1, r6
  86 003e FFF7FEFF 		bl	CyBle_GapGetPeerBdHandle
  87              	.LVL10:
ARM GAS  C:\Users\David\AppData\Local\Temp\ccZhbYDC.s 			page 4


  84:.\bleconnection.c ****         
  85:.\bleconnection.c ****         /* Get identification request key */
  86:.\bleconnection.c ****         bondedDeviceKeysFlag = 0x01;
  88              		.loc 1 86 0
  89 0042 6946     		mov	r1, sp
  90 0044 4F31     		add	r1, r1, #79
  91 0046 0123     		mov	r3, #1
  92 0048 0B70     		strb	r3, [r1]
  87:.\bleconnection.c ****         CyBle_GapGetPeerDevSecurityKeyInfo(ble->bondedDeviceBdHandle, &bondedDeviceKeysFlag, &secur
  93              		.loc 1 87 0
  94 004a 2E23     		mov	r3, #46
  95 004c E05C     		ldrb	r0, [r4, r3]
  96 004e 01AA     		add	r2, sp, #4
  97 0050 FFF7FEFF 		bl	CyBle_GapGetPeerDevSecurityKeyInfo
  98              	.LVL11:
  88:.\bleconnection.c ****         memcpy(ble->connectionIrk, securityKeys.irkInfo, CYBLE_GAP_SMP_IRK_SIZE);
  99              		.loc 1 88 0
 100 0054 201C     		mov	r0, r4
 101 0056 1E30     		add	r0, r0, #30
 102 0058 6946     		mov	r1, sp
 103 005a 1E31     		add	r1, r1, #30
 104 005c 1022     		mov	r2, #16
 105 005e FFF7FEFF 		bl	memcpy
 106              	.LVL12:
 107              	.L4:
  89:.\bleconnection.c ****     }
  90:.\bleconnection.c **** 
  91:.\bleconnection.c ****     /*Clear auth error*/
  92:.\bleconnection.c ****     ble->LastAuthentificationError = CYBLE_GAP_AUTH_ERROR_NONE;
 108              		.loc 1 92 0
 109 0062 0023     		mov	r3, #0
 110 0064 2F22     		mov	r2, #47
 111 0066 A354     		strb	r3, [r4, r2]
  93:.\bleconnection.c ****     ble->mode = STOP_MODE;
 112              		.loc 1 93 0
 113 0068 2370     		strb	r3, [r4]
  94:.\bleconnection.c ****     //BleConnectionStartAdvertising(ble);
  95:.\bleconnection.c ****     return status;
  96:.\bleconnection.c **** }
 114              		.loc 1 96 0
 115 006a 281C     		mov	r0, r5
 116 006c 14B0     		add	sp, sp, #80
 117              		@ sp needed
 118              	.LVL13:
 119              	.LVL14:
 120 006e 70BD     		pop	{r4, r5, r6, pc}
 121              		.cfi_endproc
 122              	.LFE35:
 123              		.size	BleConnectionInit, .-BleConnectionInit
 124              		.section	.text.BleConnectionStartPairing,"ax",%progbits
 125              		.align	2
 126              		.global	BleConnectionStartPairing
 127              		.code	16
 128              		.thumb_func
 129              		.type	BleConnectionStartPairing, %function
 130              	BleConnectionStartPairing:
 131              	.LFB36:
ARM GAS  C:\Users\David\AppData\Local\Temp\ccZhbYDC.s 			page 5


  97:.\bleconnection.c **** 
  98:.\bleconnection.c **** /*****************************************************************************
  99:.\bleconnection.c **** * Function Name: BleConnectionStartPairing
 100:.\bleconnection.c **** ******************************************************************************
 101:.\bleconnection.c **** *
 102:.\bleconnection.c **** * Summary:
 103:.\bleconnection.c **** *  Function that start pairing mode
 104:.\bleconnection.c **** *
 105:.\bleconnection.c **** * Parameters:
 106:.\bleconnection.c **** *  ble - pointer to the bleConnection_t structure  
 107:.\bleconnection.c **** *
 108:.\bleconnection.c **** * Return:
 109:.\bleconnection.c **** *  bleConnectionError_t
 110:.\bleconnection.c **** *
 111:.\bleconnection.c **** *****************************************************************************/
 112:.\bleconnection.c **** bleConnectionError_t BleConnectionStartPairing(bleConnection_t* ble){
 132              		.loc 1 112 0
 133              		.cfi_startproc
 134              	.LVL15:
 113:.\bleconnection.c ****     bleConnectionError_t status = ERROR_BLE_CONNECTION_NONE;
 114:.\bleconnection.c **** 
 115:.\bleconnection.c ****     if(ble->mode != PAIRING_MODE) {
 135              		.loc 1 115 0
 136 0000 0378     		ldrb	r3, [r0]
 137 0002 012B     		cmp	r3, #1
 138 0004 01D0     		beq	.L8
 116:.\bleconnection.c ****         ble->mode = PAIRING_MODE;
 139              		.loc 1 116 0
 140 0006 0123     		mov	r3, #1
 141 0008 0370     		strb	r3, [r0]
 142              	.L8:
 117:.\bleconnection.c ****     }
 118:.\bleconnection.c ****     return status;
 119:.\bleconnection.c **** }
 143              		.loc 1 119 0
 144 000a 0020     		mov	r0, #0
 145              	.LVL16:
 146              		@ sp needed
 147 000c 7047     		bx	lr
 148              		.cfi_endproc
 149              	.LFE36:
 150              		.size	BleConnectionStartPairing, .-BleConnectionStartPairing
 151 000e C046     		.section	.text.BleConnectionStopPairing,"ax",%progbits
 152              		.align	2
 153              		.global	BleConnectionStopPairing
 154              		.code	16
 155              		.thumb_func
 156              		.type	BleConnectionStopPairing, %function
 157              	BleConnectionStopPairing:
 158              	.LFB37:
 120:.\bleconnection.c **** 
 121:.\bleconnection.c **** /*****************************************************************************
 122:.\bleconnection.c **** * Function Name: BleConnectionStopPairing
 123:.\bleconnection.c **** ******************************************************************************
 124:.\bleconnection.c **** *
 125:.\bleconnection.c **** * Summary:
 126:.\bleconnection.c **** *  Function that stop pairing mode
ARM GAS  C:\Users\David\AppData\Local\Temp\ccZhbYDC.s 			page 6


 127:.\bleconnection.c **** *
 128:.\bleconnection.c **** * Parameters:
 129:.\bleconnection.c **** *  ble - pointer to the bleConnection_t structure 
 130:.\bleconnection.c **** *
 131:.\bleconnection.c **** * Return:
 132:.\bleconnection.c **** *  bleConnectionError_t
 133:.\bleconnection.c **** *
 134:.\bleconnection.c **** *****************************************************************************/
 135:.\bleconnection.c **** bleConnectionError_t BleConnectionStopPairing(bleConnection_t* ble){
 159              		.loc 1 135 0
 160              		.cfi_startproc
 161              	.LVL17:
 136:.\bleconnection.c ****     bleConnectionError_t status = ERROR_BLE_CONNECTION_NONE;
 137:.\bleconnection.c **** 
 138:.\bleconnection.c ****     if(ble->mode != LIMITED_MODE) {
 162              		.loc 1 138 0
 163 0000 0378     		ldrb	r3, [r0]
 164 0002 022B     		cmp	r3, #2
 165 0004 01D0     		beq	.L10
 139:.\bleconnection.c ****         ble->mode = LIMITED_MODE;
 166              		.loc 1 139 0
 167 0006 0223     		mov	r3, #2
 168 0008 0370     		strb	r3, [r0]
 169              	.L10:
 140:.\bleconnection.c ****     }
 141:.\bleconnection.c ****     return status;
 142:.\bleconnection.c **** }
 170              		.loc 1 142 0
 171 000a 0020     		mov	r0, #0
 172              	.LVL18:
 173              		@ sp needed
 174 000c 7047     		bx	lr
 175              		.cfi_endproc
 176              	.LFE37:
 177              		.size	BleConnectionStopPairing, .-BleConnectionStopPairing
 178 000e C046     		.section	.text.BleConnectionStartAdvertising,"ax",%progbits
 179              		.align	2
 180              		.global	BleConnectionStartAdvertising
 181              		.code	16
 182              		.thumb_func
 183              		.type	BleConnectionStartAdvertising, %function
 184              	BleConnectionStartAdvertising:
 185              	.LFB38:
 143:.\bleconnection.c **** 
 144:.\bleconnection.c **** /*****************************************************************************
 145:.\bleconnection.c **** * Function Name: BleConnectionStartAdvertising
 146:.\bleconnection.c **** ******************************************************************************
 147:.\bleconnection.c **** *
 148:.\bleconnection.c **** * Summary:
 149:.\bleconnection.c **** *  Function to start advertisment
 150:.\bleconnection.c **** *
 151:.\bleconnection.c **** * Parameters:
 152:.\bleconnection.c **** *  ble - pointer to the bleConnection_t structure 
 153:.\bleconnection.c **** *
 154:.\bleconnection.c **** * Return:
 155:.\bleconnection.c **** *  bleConnectionError_t
 156:.\bleconnection.c **** *
ARM GAS  C:\Users\David\AppData\Local\Temp\ccZhbYDC.s 			page 7


 157:.\bleconnection.c **** *****************************************************************************/
 158:.\bleconnection.c **** bleConnectionError_t BleConnectionStartAdvertising(bleConnection_t* ble){
 186              		.loc 1 158 0
 187              		.cfi_startproc
 188              	.LVL19:
 189 0000 70B5     		push	{r4, r5, r6, lr}
 190              		.cfi_def_cfa_offset 16
 191              		.cfi_offset 4, -16
 192              		.cfi_offset 5, -12
 193              		.cfi_offset 6, -8
 194              		.cfi_offset 14, -4
 195              	.LVL20:
 159:.\bleconnection.c ****     bleConnectionError_t status = ERROR_BLE_CONNECTION_NONE;
 160:.\bleconnection.c ****     CYBLE_API_RESULT_T apiResult;
 161:.\bleconnection.c ****     uint16_t timeout = 0xFFFF;
 162:.\bleconnection.c ****     
 163:.\bleconnection.c ****     /*Start advertisment*/
 164:.\bleconnection.c ****     apiResult = CyBle_GappStartAdvertisement(CYBLE_ADVERTISING_FAST);
 196              		.loc 1 164 0
 197 0002 0020     		mov	r0, #0
 198              	.LVL21:
 199 0004 FFF7FEFF 		bl	CyBle_GappStartAdvertisement
 200              	.LVL22:
 201 0008 061C     		mov	r6, r0
 202              	.LVL23:
 161:.\bleconnection.c ****     uint16_t timeout = 0xFFFF;
 203              		.loc 1 161 0
 204 000a 0B4C     		ldr	r4, .L19
 165:.\bleconnection.c ****     do{
 166:.\bleconnection.c ****         CyBle_ProcessEvents();
 167:.\bleconnection.c ****     }while(CyBle_GetState() == CYBLE_STACK_STATE_BUSY && timeout--);
 205              		.loc 1 167 0
 206 000c 0B4D     		ldr	r5, .L19+4
 207 000e 00E0     		b	.L13
 208              	.LVL24:
 209              	.L16:
 210 0010 1C1C     		mov	r4, r3
 211              	.LVL25:
 212              	.L13:
 166:.\bleconnection.c ****         CyBle_ProcessEvents();
 213              		.loc 1 166 0 discriminator 1
 214 0012 FFF7FEFF 		bl	CyBle_ProcessEvents
 215              	.LVL26:
 216              		.loc 1 167 0 discriminator 1
 217 0016 2B78     		ldrb	r3, [r5]
 218 0018 012B     		cmp	r3, #1
 219 001a 04D1     		bne	.L12
 220 001c 631E     		sub	r3, r4, #1
 221 001e 9BB2     		uxth	r3, r3
 222              	.LVL27:
 223 0020 002C     		cmp	r4, #0
 224 0022 F5D1     		bne	.L16
 225              		.loc 1 167 0 is_stmt 0
 226 0024 1C1C     		mov	r4, r3
 227              	.LVL28:
 228              	.L12:
 168:.\bleconnection.c ****     
ARM GAS  C:\Users\David\AppData\Local\Temp\ccZhbYDC.s 			page 8


 169:.\bleconnection.c ****     /* Error handling */
 170:.\bleconnection.c ****     if(timeout == 0){
 229              		.loc 1 170 0 is_stmt 1
 230 0026 002C     		cmp	r4, #0
 231 0028 01D0     		beq	.L17
 159:.\bleconnection.c ****     bleConnectionError_t status = ERROR_BLE_CONNECTION_NONE;
 232              		.loc 1 159 0
 233 002a 0020     		mov	r0, #0
 234 002c 00E0     		b	.L14
 235              	.L17:
 171:.\bleconnection.c ****         status = ERROR_BLE_CONNECTION_TIMEOUT;
 236              		.loc 1 171 0
 237 002e 0920     		mov	r0, #9
 238              	.L14:
 239              	.LVL29:
 172:.\bleconnection.c ****     }
 173:.\bleconnection.c ****     if(apiResult != CYBLE_ERROR_OK){
 240              		.loc 1 173 0
 241 0030 002E     		cmp	r6, #0
 242 0032 00D0     		beq	.L15
 174:.\bleconnection.c ****         status = ERROR_BLE_CONNECTION_ADVERTISEMENT_START;
 243              		.loc 1 174 0
 244 0034 0220     		mov	r0, #2
 245              	.LVL30:
 246              	.L15:
 175:.\bleconnection.c ****     }
 176:.\bleconnection.c ****     
 177:.\bleconnection.c ****     return status;
 178:.\bleconnection.c **** }
 247              		.loc 1 178 0
 248              		@ sp needed
 249              	.LVL31:
 250              	.LVL32:
 251 0036 70BD     		pop	{r4, r5, r6, pc}
 252              	.L20:
 253              		.align	2
 254              	.L19:
 255 0038 FFFF0000 		.word	65535
 256 003c 00000000 		.word	cyBle_state
 257              		.cfi_endproc
 258              	.LFE38:
 259              		.size	BleConnectionStartAdvertising, .-BleConnectionStartAdvertising
 260              		.section	.text.BleConnectionStopAdvertising,"ax",%progbits
 261              		.align	2
 262              		.global	BleConnectionStopAdvertising
 263              		.code	16
 264              		.thumb_func
 265              		.type	BleConnectionStopAdvertising, %function
 266              	BleConnectionStopAdvertising:
 267              	.LFB39:
 179:.\bleconnection.c **** 
 180:.\bleconnection.c **** 
 181:.\bleconnection.c **** 
 182:.\bleconnection.c **** /*****************************************************************************
 183:.\bleconnection.c **** * Function Name: BleConnectionStopAdvertising
 184:.\bleconnection.c **** ******************************************************************************
 185:.\bleconnection.c **** *
ARM GAS  C:\Users\David\AppData\Local\Temp\ccZhbYDC.s 			page 9


 186:.\bleconnection.c **** * Summary:
 187:.\bleconnection.c **** *  Function to stop advertisment
 188:.\bleconnection.c **** *
 189:.\bleconnection.c **** * Parameters:
 190:.\bleconnection.c **** *  ble - pointer to the bleConnection_t structure 
 191:.\bleconnection.c **** *
 192:.\bleconnection.c **** * Return:
 193:.\bleconnection.c **** *  bleConnectionError_t
 194:.\bleconnection.c **** *
 195:.\bleconnection.c **** *****************************************************************************/
 196:.\bleconnection.c **** void BleConnectionStopAdvertising(bleConnection_t* ble){
 268              		.loc 1 196 0
 269              		.cfi_startproc
 270              	.LVL33:
 271 0000 08B5     		push	{r3, lr}
 272              		.cfi_def_cfa_offset 8
 273              		.cfi_offset 3, -8
 274              		.cfi_offset 14, -4
 197:.\bleconnection.c ****     /*Shutdown ble discovery*/
 198:.\bleconnection.c ****     CyBle_GappStopAdvertisement();
 275              		.loc 1 198 0
 276 0002 FFF7FEFF 		bl	CyBle_GappStopAdvertisement
 277              	.LVL34:
 199:.\bleconnection.c ****     //ble->mode = STOP_MODE;
 200:.\bleconnection.c **** }
 278              		.loc 1 200 0
 279              		@ sp needed
 280 0006 08BD     		pop	{r3, pc}
 281              		.cfi_endproc
 282              	.LFE39:
 283              		.size	BleConnectionStopAdvertising, .-BleConnectionStopAdvertising
 284              		.section	.text.BleConnectionClearBondedDeviceList,"ax",%progbits
 285              		.align	2
 286              		.global	BleConnectionClearBondedDeviceList
 287              		.code	16
 288              		.thumb_func
 289              		.type	BleConnectionClearBondedDeviceList, %function
 290              	BleConnectionClearBondedDeviceList:
 291              	.LFB41:
 201:.\bleconnection.c **** 
 202:.\bleconnection.c **** /*****************************************************************************
 203:.\bleconnection.c **** * Function Name: BleConnectionStopAdvertising
 204:.\bleconnection.c **** ******************************************************************************
 205:.\bleconnection.c **** *
 206:.\bleconnection.c **** * Summary:
 207:.\bleconnection.c **** *  Function that will write to flash the bonded device list
 208:.\bleconnection.c **** *  when authentification is done.
 209:.\bleconnection.c **** *
 210:.\bleconnection.c **** * Parameters:
 211:.\bleconnection.c **** *  ble - pointer to the bleConnection_t structure 
 212:.\bleconnection.c **** *  eventParam - pointer to event parameter of the
 213:.\bleconnection.c **** *  CYBLE_EVT_GAP_AUTH_COMPLETE state in the main event stack handler
 214:.\bleconnection.c **** *
 215:.\bleconnection.c **** * Return:
 216:.\bleconnection.c **** *  bleConnectionError_t
 217:.\bleconnection.c **** *
 218:.\bleconnection.c **** *****************************************************************************/
ARM GAS  C:\Users\David\AppData\Local\Temp\ccZhbYDC.s 			page 10


 219:.\bleconnection.c **** bleConnectionError_t BleConnectionFinalizeAuthentification(bleConnection_t* ble, void* eventParam){
 220:.\bleconnection.c ****     bleConnectionError_t status = ERROR_BLE_CONNECTION_NONE;
 221:.\bleconnection.c ****     CYBLE_GAP_AUTH_FAILED_REASON_T eventResult = *(CYBLE_GAP_AUTH_FAILED_REASON_T*)eventParam;
 222:.\bleconnection.c ****     /*should check that eventResult == CYBLE_GAP_AUTH_ERROR_NONE*/
 223:.\bleconnection.c ****     /*but alway get an error from the stack in our pairing flow*/
 224:.\bleconnection.c ****     status = _BleConnectionUpdateBondedDeviceList(ble);
 225:.\bleconnection.c ****     return status;
 226:.\bleconnection.c **** }
 227:.\bleconnection.c **** 
 228:.\bleconnection.c **** /*****************************************************************************
 229:.\bleconnection.c **** * Function Name: BleConnectionClearBondedDeviceList
 230:.\bleconnection.c **** ******************************************************************************
 231:.\bleconnection.c **** *
 232:.\bleconnection.c **** * Summary:
 233:.\bleconnection.c **** *  Function that will clear the bonded device list located in flash
 234:.\bleconnection.c **** *
 235:.\bleconnection.c **** * Parameters:
 236:.\bleconnection.c **** *  ble - pointer to the bleConnection_t structure 
 237:.\bleconnection.c **** *
 238:.\bleconnection.c **** * Return:
 239:.\bleconnection.c **** *  bleConnectionError_t
 240:.\bleconnection.c **** *
 241:.\bleconnection.c **** *****************************************************************************/
 242:.\bleconnection.c **** bleConnectionError_t BleConnectionClearBondedDeviceList(bleConnection_t* ble){
 292              		.loc 1 242 0
 293              		.cfi_startproc
 294              	.LVL35:
 295 0000 10B5     		push	{r4, lr}
 296              		.cfi_def_cfa_offset 8
 297              		.cfi_offset 4, -8
 298              		.cfi_offset 14, -4
 299 0002 041C     		mov	r4, r0
 300              	.LVL36:
 243:.\bleconnection.c ****     CYBLE_API_RESULT_T apiResult;
 244:.\bleconnection.c ****     uint16_t timeout = 0xFFFF;
 245:.\bleconnection.c ****     uint8_t i;
 246:.\bleconnection.c ****     
 247:.\bleconnection.c ****     /*Clear all device in the bonded device list*/
 248:.\bleconnection.c ****     apiResult = CyBle_GapRemoveOldestDeviceFromBondedList();
 301              		.loc 1 248 0
 302 0004 FFF7FEFF 		bl	CyBle_GapRemoveOldestDeviceFromBondedList
 303              	.LVL37:
 249:.\bleconnection.c ****     if(apiResult != CYBLE_ERROR_OK){
 304              		.loc 1 249 0
 305 0008 0028     		cmp	r0, #0
 306 000a 21D1     		bne	.L28
 250:.\bleconnection.c ****         return ERROR_BLE_CONNECTION_ERASE_BONDED_DEVICE_LIST;
 251:.\bleconnection.c ****     }
 252:.\bleconnection.c ****     else{
 253:.\bleconnection.c ****         /*Update structure*/
 254:.\bleconnection.c ****         apiResult = CyBle_GapGetBondedDevicesList(&(ble->gapBondedDeviceList)); 
 307              		.loc 1 254 0
 308 000c 601C     		add	r0, r4, #1
 309              	.LVL38:
 310 000e FFF7FEFF 		bl	CyBle_GapGetBondedDevicesList
 311              	.LVL39:
 255:.\bleconnection.c ****         ble->bondedDeviceBdHandle = 0;
ARM GAS  C:\Users\David\AppData\Local\Temp\ccZhbYDC.s 			page 11


 312              		.loc 1 255 0
 313 0012 0022     		mov	r2, #0
 314 0014 2E23     		mov	r3, #46
 315 0016 E254     		strb	r2, [r4, r3]
 316              	.LVL40:
 256:.\bleconnection.c ****         for(i = 0; i < CYBLE_SMP_IRK_SIZE; i++){
 317              		.loc 1 256 0
 318 0018 0023     		mov	r3, #0
 257:.\bleconnection.c ****             ble->connectionIrk[i] = 0;
 319              		.loc 1 257 0
 320 001a 0021     		mov	r1, #0
 256:.\bleconnection.c ****         for(i = 0; i < CYBLE_SMP_IRK_SIZE; i++){
 321              		.loc 1 256 0
 322 001c 03E0     		b	.L24
 323              	.LVL41:
 324              	.L25:
 325              		.loc 1 257 0 discriminator 2
 326 001e E218     		add	r2, r4, r3
 327 0020 9177     		strb	r1, [r2, #30]
 256:.\bleconnection.c ****         for(i = 0; i < CYBLE_SMP_IRK_SIZE; i++){
 328              		.loc 1 256 0 discriminator 2
 329 0022 0133     		add	r3, r3, #1
 330              	.LVL42:
 331 0024 DBB2     		uxtb	r3, r3
 332              	.LVL43:
 333              	.L24:
 256:.\bleconnection.c ****         for(i = 0; i < CYBLE_SMP_IRK_SIZE; i++){
 334              		.loc 1 256 0 is_stmt 0 discriminator 1
 335 0026 0F2B     		cmp	r3, #15
 336 0028 F9D9     		bls	.L25
 258:.\bleconnection.c ****         }
 259:.\bleconnection.c ****         if(apiResult != CYBLE_ERROR_OK){
 337              		.loc 1 259 0 is_stmt 1
 338 002a 0028     		cmp	r0, #0
 339 002c 12D1     		bne	.L29
 340 002e 0B4C     		ldr	r4, .L32
 341              	.LVL44:
 342 0030 00E0     		b	.L27
 343              	.LVL45:
 344              	.L30:
 260:.\bleconnection.c ****             return ERROR_BLE_CONNECTION_GET_BONDED_DEVICE_LIST;
 261:.\bleconnection.c ****         }
 262:.\bleconnection.c ****     }
 263:.\bleconnection.c ****     
 264:.\bleconnection.c ****     /*Update flash data*/
 265:.\bleconnection.c ****     while((CyBle_StoreBondingData(1) != CYBLE_ERROR_OK) && (timeout--));
 345              		.loc 1 265 0
 346 0032 1C1C     		mov	r4, r3
 347              	.LVL46:
 348              	.L27:
 349              		.loc 1 265 0 is_stmt 0 discriminator 1
 350 0034 0120     		mov	r0, #1
 351 0036 FFF7FEFF 		bl	CyBle_StoreBondingData
 352              	.LVL47:
 353 003a 0028     		cmp	r0, #0
 354 003c 04D0     		beq	.L26
 355              		.loc 1 265 0 discriminator 2
ARM GAS  C:\Users\David\AppData\Local\Temp\ccZhbYDC.s 			page 12


 356 003e 631E     		sub	r3, r4, #1
 357 0040 9BB2     		uxth	r3, r3
 358              	.LVL48:
 359 0042 002C     		cmp	r4, #0
 360 0044 F5D1     		bne	.L30
 361              		.loc 1 265 0
 362 0046 1C1C     		mov	r4, r3
 363              	.LVL49:
 364              	.L26:
 266:.\bleconnection.c ****     /*Timeout check*/
 267:.\bleconnection.c ****     if(timeout == 0x0000){
 365              		.loc 1 267 0 is_stmt 1
 366 0048 002C     		cmp	r4, #0
 367 004a 05D1     		bne	.L31
 268:.\bleconnection.c ****         return ERROR_BLE_CONNECTION_TIMEOUT;
 368              		.loc 1 268 0
 369 004c 0920     		mov	r0, #9
 370 004e 04E0     		b	.L23
 371              	.LVL50:
 372              	.L28:
 250:.\bleconnection.c ****         return ERROR_BLE_CONNECTION_ERASE_BONDED_DEVICE_LIST;
 373              		.loc 1 250 0
 374 0050 0820     		mov	r0, #8
 375              	.LVL51:
 376 0052 02E0     		b	.L23
 377              	.LVL52:
 378              	.L29:
 260:.\bleconnection.c ****             return ERROR_BLE_CONNECTION_GET_BONDED_DEVICE_LIST;
 379              		.loc 1 260 0
 380 0054 0620     		mov	r0, #6
 381              	.LVL53:
 382 0056 00E0     		b	.L23
 383              	.LVL54:
 384              	.L31:
 269:.\bleconnection.c ****     }
 270:.\bleconnection.c ****     else{
 271:.\bleconnection.c ****         return ERROR_BLE_CONNECTION_NONE;
 385              		.loc 1 271 0
 386 0058 0020     		mov	r0, #0
 387              	.LVL55:
 388              	.L23:
 272:.\bleconnection.c ****     }
 273:.\bleconnection.c **** }
 389              		.loc 1 273 0
 390              		@ sp needed
 391 005a 10BD     		pop	{r4, pc}
 392              	.L33:
 393              		.align	2
 394              	.L32:
 395 005c FFFF0000 		.word	65535
 396              		.cfi_endproc
 397              	.LFE41:
 398              		.size	BleConnectionClearBondedDeviceList, .-BleConnectionClearBondedDeviceList
 399              		.section	.text.BleConnectionSetIRK,"ax",%progbits
 400              		.align	2
 401              		.global	BleConnectionSetIRK
 402              		.code	16
ARM GAS  C:\Users\David\AppData\Local\Temp\ccZhbYDC.s 			page 13


 403              		.thumb_func
 404              		.type	BleConnectionSetIRK, %function
 405              	BleConnectionSetIRK:
 406              	.LFB42:
 274:.\bleconnection.c **** 
 275:.\bleconnection.c **** /*****************************************************************************
 276:.\bleconnection.c **** * Function Name: BleConnectionSetIRK
 277:.\bleconnection.c **** ******************************************************************************
 278:.\bleconnection.c **** *
 279:.\bleconnection.c **** * Summary:
 280:.\bleconnection.c **** *  Function that will update local irk.
 281:.\bleconnection.c **** *
 282:.\bleconnection.c **** * Parameters:
 283:.\bleconnection.c **** *  ble - pointer to the bleConnection_t structure 
 284:.\bleconnection.c **** *  irk - pointer to irk array 
 285:.\bleconnection.c **** *
 286:.\bleconnection.c **** * Return:
 287:.\bleconnection.c **** *  bleConnectionError_t
 288:.\bleconnection.c **** *
 289:.\bleconnection.c **** *****************************************************************************/
 290:.\bleconnection.c **** bleConnectionError_t BleConnectionSetIRK(bleConnection_t* ble, uint8_t* irk){
 407              		.loc 1 290 0
 408              		.cfi_startproc
 409              	.LVL56:
 410 0000 08B5     		push	{r3, lr}
 411              		.cfi_def_cfa_offset 8
 412              		.cfi_offset 3, -8
 413              		.cfi_offset 14, -4
 291:.\bleconnection.c ****     if(irk != 0){
 414              		.loc 1 291 0
 415 0002 0029     		cmp	r1, #0
 416 0004 05D0     		beq	.L36
 292:.\bleconnection.c ****         memcpy(&ble->connectionIrk, irk, CYBLE_GAP_SMP_IRK_SIZE);
 417              		.loc 1 292 0
 418 0006 1E30     		add	r0, r0, #30
 419              	.LVL57:
 420 0008 1022     		mov	r2, #16
 421 000a FFF7FEFF 		bl	memcpy
 422              	.LVL58:
 293:.\bleconnection.c ****         //ble->advertisingMode = PRIVATE_MODE;
 294:.\bleconnection.c ****         return ERROR_BLE_CONNECTION_NONE;
 423              		.loc 1 294 0
 424 000e 0020     		mov	r0, #0
 425 0010 00E0     		b	.L35
 426              	.LVL59:
 427              	.L36:
 295:.\bleconnection.c ****     }
 296:.\bleconnection.c ****     else{
 297:.\bleconnection.c ****         return ERROR_BLE_CONNECTION_IRK;
 428              		.loc 1 297 0
 429 0012 0420     		mov	r0, #4
 430              	.LVL60:
 431              	.L35:
 298:.\bleconnection.c ****     }
 299:.\bleconnection.c **** }
 432              		.loc 1 299 0
 433              		@ sp needed
ARM GAS  C:\Users\David\AppData\Local\Temp\ccZhbYDC.s 			page 14


 434 0014 08BD     		pop	{r3, pc}
 435              		.cfi_endproc
 436              	.LFE42:
 437              		.size	BleConnectionSetIRK, .-BleConnectionSetIRK
 438 0016 C046     		.section	.text.BleConnectionSetPeerBdHandle,"ax",%progbits
 439              		.align	2
 440              		.global	BleConnectionSetPeerBdHandle
 441              		.code	16
 442              		.thumb_func
 443              		.type	BleConnectionSetPeerBdHandle, %function
 444              	BleConnectionSetPeerBdHandle:
 445              	.LFB43:
 300:.\bleconnection.c **** 
 301:.\bleconnection.c **** /*****************************************************************************
 302:.\bleconnection.c **** * Function Name: BleConnectionPeer
 303:.\bleconnection.c **** ******************************************************************************
 304:.\bleconnection.c **** *
 305:.\bleconnection.c **** * Summary:
 306:.\bleconnection.c **** *  Function that will update local irk.
 307:.\bleconnection.c **** *
 308:.\bleconnection.c **** * Parameters:
 309:.\bleconnection.c **** *  ble - pointer to the bleConnection_t structure 
 310:.\bleconnection.c **** *  peerBdHandle - stack connection handle
 311:.\bleconnection.c **** *
 312:.\bleconnection.c **** * Return:
 313:.\bleconnection.c **** *  bleConnectionError_t
 314:.\bleconnection.c **** *
 315:.\bleconnection.c **** *****************************************************************************/
 316:.\bleconnection.c **** bleConnectionError_t BleConnectionSetPeerBdHandle(bleConnection_t* ble, CYBLE_CONN_HANDLE_T* peerBd
 446              		.loc 1 316 0
 447              		.cfi_startproc
 448              	.LVL61:
 317:.\bleconnection.c ****     if(peerBdHandle != 0){
 449              		.loc 1 317 0
 450 0000 0029     		cmp	r1, #0
 451 0002 01D0     		beq	.L39
 318:.\bleconnection.c ****         //ble->connectionHandle = peerBdHandle;    
 319:.\bleconnection.c ****         return ERROR_BLE_CONNECTION_NONE;
 452              		.loc 1 319 0
 453 0004 0020     		mov	r0, #0
 454              	.LVL62:
 455 0006 00E0     		b	.L38
 456              	.LVL63:
 457              	.L39:
 320:.\bleconnection.c ****     }
 321:.\bleconnection.c ****     else{
 322:.\bleconnection.c ****         return ERROR_BLE_PEER_BD_HANDLE;
 458              		.loc 1 322 0
 459 0008 0520     		mov	r0, #5
 460              	.LVL64:
 461              	.L38:
 323:.\bleconnection.c ****     }
 324:.\bleconnection.c **** }
 462              		.loc 1 324 0
 463              		@ sp needed
 464 000a 7047     		bx	lr
 465              		.cfi_endproc
ARM GAS  C:\Users\David\AppData\Local\Temp\ccZhbYDC.s 			page 15


 466              	.LFE43:
 467              		.size	BleConnectionSetPeerBdHandle, .-BleConnectionSetPeerBdHandle
 468              		.section	.text.BleConnectionResolvePeerAddress,"ax",%progbits
 469              		.align	2
 470              		.global	BleConnectionResolvePeerAddress
 471              		.code	16
 472              		.thumb_func
 473              		.type	BleConnectionResolvePeerAddress, %function
 474              	BleConnectionResolvePeerAddress:
 475              	.LFB44:
 325:.\bleconnection.c **** 
 326:.\bleconnection.c **** /*****************************************************************************
 327:.\bleconnection.c **** * Function Name: BleConnectionResolvePeerAddress
 328:.\bleconnection.c **** ******************************************************************************
 329:.\bleconnection.c **** *
 330:.\bleconnection.c **** * Summary:
 331:.\bleconnection.c **** *  Function that will update local irk.
 332:.\bleconnection.c **** *
 333:.\bleconnection.c **** * Parameters:
 334:.\bleconnection.c **** *  ble - pointer to the bleConnection_t structure 
 335:.\bleconnection.c **** *  peerBdHandle - stack connection handle
 336:.\bleconnection.c **** *
 337:.\bleconnection.c **** * Return:
 338:.\bleconnection.c **** *  bleConnectionError_t
 339:.\bleconnection.c **** *
 340:.\bleconnection.c **** *****************************************************************************/
 341:.\bleconnection.c **** uint8_t BleConnectionResolvePeerAddress(bleConnection_t* ble, CYBLE_GAP_BD_ADDR_T privateAddress){
 476              		.loc 1 341 0
 477              		.cfi_startproc
 478              	.LVL65:
 479 0000 10B5     		push	{r4, lr}
 480              		.cfi_def_cfa_offset 8
 481              		.cfi_offset 4, -8
 482              		.cfi_offset 14, -4
 483 0002 8CB0     		sub	sp, sp, #48
 484              		.cfi_def_cfa_offset 56
 485 0004 0091     		str	r1, [sp]
 486 0006 0192     		str	r2, [sp, #4]
 342:.\bleconnection.c ****     uint8_t bondedDeviceKeysFlag;
 343:.\bleconnection.c ****     CYBLE_GAP_BD_ADDR_T bondedDeviceAddress;
 344:.\bleconnection.c ****     CYBLE_GAP_SMP_KEY_DIST_T securityKeys;
 345:.\bleconnection.c ****     uint8_t prand[16] = {0}; //prand with 0 padding
 487              		.loc 1 345 0
 488 0008 0023     		mov	r3, #0
 489 000a 0893     		str	r3, [sp, #32]
 490 000c 0993     		str	r3, [sp, #36]
 491 000e 0A93     		str	r3, [sp, #40]
 492 0010 0B93     		str	r3, [sp, #44]
 346:.\bleconnection.c ****     uint8_t hash128Bits[16];
 347:.\bleconnection.c ****     uint8_t hash24Bits[4] = {0}; //24bits + \0
 493              		.loc 1 347 0
 494 0012 0393     		str	r3, [sp, #12]
 348:.\bleconnection.c ****     uint8_t remoteHash24Bits[4] = {0}; //24bits + \0
 495              		.loc 1 348 0
 496 0014 0293     		str	r3, [sp, #8]
 349:.\bleconnection.c ****     uint8_t i;
 350:.\bleconnection.c ****     
ARM GAS  C:\Users\David\AppData\Local\Temp\ccZhbYDC.s 			page 16


 351:.\bleconnection.c ****     if(ble->mode == LIMITED_MODE){
 497              		.loc 1 351 0
 498 0016 0378     		ldrb	r3, [r0]
 499 0018 022B     		cmp	r3, #2
 500 001a 0CD0     		beq	.L46
 352:.\bleconnection.c ****         /* Get prand part of BT address. Last 24bits of the private address*/
 353:.\bleconnection.c ****         /* Get hash part of BT address. First 24bits of the private address*/
 354:.\bleconnection.c ****         for(i = 0; i < 3; i++){
 355:.\bleconnection.c ****             prand[i] = privateAddress.bdAddr[i+3];
 356:.\bleconnection.c ****             remoteHash24Bits[i] = privateAddress.bdAddr[i];
 357:.\bleconnection.c ****         }
 358:.\bleconnection.c ****         
 359:.\bleconnection.c ****         /* Get 128 bits hash*/
 360:.\bleconnection.c ****         CyBle_AesEncrypt(prand, ble->connectionIrk, hash128Bits); 
 361:.\bleconnection.c ****         for(i = 0; i < 3; i++){
 362:.\bleconnection.c ****             hash24Bits[i] = hash128Bits[i];
 363:.\bleconnection.c ****         }
 364:.\bleconnection.c ****         
 365:.\bleconnection.c ****         /* Compare */
 366:.\bleconnection.c ****         if(strcmp((const char*)hash24Bits, (const char*)remoteHash24Bits) == 0){
 367:.\bleconnection.c ****             return 1;
 368:.\bleconnection.c ****         }
 369:.\bleconnection.c ****         else{
 370:.\bleconnection.c ****             return 0;
 371:.\bleconnection.c ****         }
 372:.\bleconnection.c ****     }
 373:.\bleconnection.c ****     else{
 374:.\bleconnection.c ****         return 1;
 501              		.loc 1 374 0
 502 001c 0120     		mov	r0, #1
 503              	.LVL66:
 504 001e 26E0     		b	.L42
 505              	.LVL67:
 506              	.L43:
 355:.\bleconnection.c ****             prand[i] = privateAddress.bdAddr[i+3];
 507              		.loc 1 355 0 discriminator 2
 508 0020 DA1C     		add	r2, r3, #3
 509 0022 6C46     		mov	r4, sp
 510 0024 A15C     		ldrb	r1, [r4, r2]
 511 0026 08AA     		add	r2, sp, #32
 512 0028 D154     		strb	r1, [r2, r3]
 356:.\bleconnection.c ****             remoteHash24Bits[i] = privateAddress.bdAddr[i];
 513              		.loc 1 356 0 discriminator 2
 514 002a E15C     		ldrb	r1, [r4, r3]
 515 002c 02AA     		add	r2, sp, #8
 516 002e D154     		strb	r1, [r2, r3]
 354:.\bleconnection.c ****         for(i = 0; i < 3; i++){
 517              		.loc 1 354 0 discriminator 2
 518 0030 0133     		add	r3, r3, #1
 519              	.LVL68:
 520 0032 DBB2     		uxtb	r3, r3
 521              	.LVL69:
 522 0034 00E0     		b	.L41
 523              	.LVL70:
 524              	.L46:
 525 0036 0023     		mov	r3, #0
 526              	.L41:
ARM GAS  C:\Users\David\AppData\Local\Temp\ccZhbYDC.s 			page 17


 527              	.LVL71:
 354:.\bleconnection.c ****         for(i = 0; i < 3; i++){
 528              		.loc 1 354 0 is_stmt 0 discriminator 1
 529 0038 022B     		cmp	r3, #2
 530 003a F1D9     		bls	.L43
 360:.\bleconnection.c ****         CyBle_AesEncrypt(prand, ble->connectionIrk, hash128Bits); 
 531              		.loc 1 360 0 is_stmt 1
 532 003c 011C     		mov	r1, r0
 533 003e 1E31     		add	r1, r1, #30
 534 0040 08A8     		add	r0, sp, #32
 535              	.LVL72:
 536 0042 04AA     		add	r2, sp, #16
 537 0044 FFF7FEFF 		bl	CyBle_AesEncrypt
 538              	.LVL73:
 361:.\bleconnection.c ****         for(i = 0; i < 3; i++){
 539              		.loc 1 361 0
 540 0048 0023     		mov	r3, #0
 541 004a 05E0     		b	.L44
 542              	.LVL74:
 543              	.L45:
 362:.\bleconnection.c ****             hash24Bits[i] = hash128Bits[i];
 544              		.loc 1 362 0 discriminator 2
 545 004c 04AA     		add	r2, sp, #16
 546 004e D15C     		ldrb	r1, [r2, r3]
 547 0050 03AA     		add	r2, sp, #12
 548 0052 D154     		strb	r1, [r2, r3]
 361:.\bleconnection.c ****         for(i = 0; i < 3; i++){
 549              		.loc 1 361 0 discriminator 2
 550 0054 0133     		add	r3, r3, #1
 551              	.LVL75:
 552 0056 DBB2     		uxtb	r3, r3
 553              	.LVL76:
 554              	.L44:
 361:.\bleconnection.c ****         for(i = 0; i < 3; i++){
 555              		.loc 1 361 0 is_stmt 0 discriminator 1
 556 0058 022B     		cmp	r3, #2
 557 005a F7D9     		bls	.L45
 366:.\bleconnection.c ****         if(strcmp((const char*)hash24Bits, (const char*)remoteHash24Bits) == 0){
 558              		.loc 1 366 0 is_stmt 1
 559 005c 03A8     		add	r0, sp, #12
 560 005e 02A9     		add	r1, sp, #8
 561 0060 FFF7FEFF 		bl	strcmp
 562              	.LVL77:
 563 0064 0028     		cmp	r0, #0
 564 0066 01D1     		bne	.L47
 367:.\bleconnection.c ****             return 1;
 565              		.loc 1 367 0
 566 0068 0120     		mov	r0, #1
 567 006a 00E0     		b	.L42
 568              	.L47:
 370:.\bleconnection.c ****             return 0;
 569              		.loc 1 370 0
 570 006c 0020     		mov	r0, #0
 571              	.L42:
 375:.\bleconnection.c ****     }
 376:.\bleconnection.c **** }
 572              		.loc 1 376 0
ARM GAS  C:\Users\David\AppData\Local\Temp\ccZhbYDC.s 			page 18


 573 006e 0CB0     		add	sp, sp, #48
 574              		@ sp needed
 575 0070 10BD     		pop	{r4, pc}
 576              		.cfi_endproc
 577              	.LFE44:
 578              		.size	BleConnectionResolvePeerAddress, .-BleConnectionResolvePeerAddress
 579 0072 C046     		.section	.text._BleConnectionUpdateBondedDeviceList,"ax",%progbits
 580              		.align	2
 581              		.global	_BleConnectionUpdateBondedDeviceList
 582              		.code	16
 583              		.thumb_func
 584              		.type	_BleConnectionUpdateBondedDeviceList, %function
 585              	_BleConnectionUpdateBondedDeviceList:
 586              	.LFB45:
 377:.\bleconnection.c **** 
 378:.\bleconnection.c **** /*****************************************************************************
 379:.\bleconnection.c **** * Private functions
 380:.\bleconnection.c **** *****************************************************************************/
 381:.\bleconnection.c **** /*****************************************************************************
 382:.\bleconnection.c **** * Function Name: _BleConnectionUpdateBondedDeviceList
 383:.\bleconnection.c **** ******************************************************************************
 384:.\bleconnection.c **** *
 385:.\bleconnection.c **** * Summary:
 386:.\bleconnection.c **** *  Function that will update the bonded device list located in flash
 387:.\bleconnection.c **** *
 388:.\bleconnection.c **** * Parameters:
 389:.\bleconnection.c **** *  ble - pointer to the bleConnection_t structure 
 390:.\bleconnection.c **** *
 391:.\bleconnection.c **** * Return:
 392:.\bleconnection.c **** *  bleConnectionError_t
 393:.\bleconnection.c **** *
 394:.\bleconnection.c **** *****************************************************************************/
 395:.\bleconnection.c **** bleConnectionError_t _BleConnectionUpdateBondedDeviceList(bleConnection_t* ble){
 587              		.loc 1 395 0
 588              		.cfi_startproc
 589              	.LVL78:
 590 0000 38B5     		push	{r3, r4, r5, lr}
 591              		.cfi_def_cfa_offset 16
 592              		.cfi_offset 3, -16
 593              		.cfi_offset 4, -12
 594              		.cfi_offset 5, -8
 595              		.cfi_offset 14, -4
 596 0002 041C     		mov	r4, r0
 597              	.LVL79:
 396:.\bleconnection.c ****     CYBLE_API_RESULT_T apiResult;
 397:.\bleconnection.c ****     uint16_t timeout = 0xFFFF;
 398:.\bleconnection.c ****     
 399:.\bleconnection.c ****     /*Update device list*/
 400:.\bleconnection.c ****     apiResult = CyBle_GapGetBondedDevicesList(&(ble->gapBondedDeviceList));
 598              		.loc 1 400 0
 599 0004 451C     		add	r5, r0, #1
 600 0006 281C     		mov	r0, r5
 601              	.LVL80:
 602 0008 FFF7FEFF 		bl	CyBle_GapGetBondedDevicesList
 603              	.LVL81:
 401:.\bleconnection.c ****     if(apiResult != CYBLE_ERROR_OK){
 604              		.loc 1 401 0
ARM GAS  C:\Users\David\AppData\Local\Temp\ccZhbYDC.s 			page 19


 605 000c 0028     		cmp	r0, #0
 606 000e 1CD1     		bne	.L53
 402:.\bleconnection.c ****         return ERROR_BLE_CONNECTION_GET_BONDED_DEVICE_LIST;
 403:.\bleconnection.c ****     }
 404:.\bleconnection.c ****     
 405:.\bleconnection.c ****     /*Be sure that there's only 1 device in the bonded device list*/
 406:.\bleconnection.c ****     if(ble->gapBondedDeviceList.count > 1){
 607              		.loc 1 406 0
 608 0010 6378     		ldrb	r3, [r4, #1]
 609 0012 012B     		cmp	r3, #1
 610 0014 08D9     		bls	.L50
 407:.\bleconnection.c ****         apiResult = CyBle_GapRemoveOldestDeviceFromBondedList();
 611              		.loc 1 407 0
 612 0016 FFF7FEFF 		bl	CyBle_GapRemoveOldestDeviceFromBondedList
 613              	.LVL82:
 408:.\bleconnection.c ****         if(apiResult != CYBLE_ERROR_OK){
 614              		.loc 1 408 0
 615 001a 0028     		cmp	r0, #0
 616 001c 17D1     		bne	.L54
 409:.\bleconnection.c ****             return ERROR_BLE_CONNECTION_ERASE_BONDED_DEVICE;
 410:.\bleconnection.c ****         }
 411:.\bleconnection.c ****         /*Update structure device list*/
 412:.\bleconnection.c ****         apiResult = CyBle_GapGetBondedDevicesList(&(ble->gapBondedDeviceList)); 
 617              		.loc 1 412 0
 618 001e 281C     		mov	r0, r5
 619              	.LVL83:
 620 0020 FFF7FEFF 		bl	CyBle_GapGetBondedDevicesList
 621              	.LVL84:
 413:.\bleconnection.c ****         if(apiResult != CYBLE_ERROR_OK){
 622              		.loc 1 413 0
 623 0024 0028     		cmp	r0, #0
 624 0026 14D1     		bne	.L55
 625              	.LVL85:
 626              	.L50:
 395:.\bleconnection.c **** bleConnectionError_t _BleConnectionUpdateBondedDeviceList(bleConnection_t* ble){
 627              		.loc 1 395 0 discriminator 1
 628 0028 0C4C     		ldr	r4, .L58
 629              	.LVL86:
 630 002a 00E0     		b	.L52
 631              	.LVL87:
 632              	.L56:
 414:.\bleconnection.c ****             return ERROR_BLE_CONNECTION_GET_BONDED_DEVICE_LIST;
 415:.\bleconnection.c ****         }
 416:.\bleconnection.c ****     }
 417:.\bleconnection.c **** 
 418:.\bleconnection.c ****     while((CyBle_StoreBondingData(1) != CYBLE_ERROR_OK) && (timeout--));
 633              		.loc 1 418 0
 634 002c 1C1C     		mov	r4, r3
 635              	.LVL88:
 636              	.L52:
 637              		.loc 1 418 0 is_stmt 0 discriminator 1
 638 002e 0120     		mov	r0, #1
 639 0030 FFF7FEFF 		bl	CyBle_StoreBondingData
 640              	.LVL89:
 641 0034 0028     		cmp	r0, #0
 642 0036 04D0     		beq	.L51
 643              		.loc 1 418 0 discriminator 2
ARM GAS  C:\Users\David\AppData\Local\Temp\ccZhbYDC.s 			page 20


 644 0038 631E     		sub	r3, r4, #1
 645 003a 9BB2     		uxth	r3, r3
 646              	.LVL90:
 647 003c 002C     		cmp	r4, #0
 648 003e F5D1     		bne	.L56
 649              		.loc 1 418 0
 650 0040 1C1C     		mov	r4, r3
 651              	.LVL91:
 652              	.L51:
 419:.\bleconnection.c ****     /*Timeout check*/
 420:.\bleconnection.c ****     if(timeout == 0x0000){
 653              		.loc 1 420 0 is_stmt 1
 654 0042 002C     		cmp	r4, #0
 655 0044 07D1     		bne	.L57
 421:.\bleconnection.c ****         return ERROR_BLE_CONNECTION_TIMEOUT;
 656              		.loc 1 421 0
 657 0046 0920     		mov	r0, #9
 658 0048 06E0     		b	.L49
 659              	.LVL92:
 660              	.L53:
 402:.\bleconnection.c ****         return ERROR_BLE_CONNECTION_GET_BONDED_DEVICE_LIST;
 661              		.loc 1 402 0
 662 004a 0620     		mov	r0, #6
 663              	.LVL93:
 664 004c 04E0     		b	.L49
 665              	.LVL94:
 666              	.L54:
 409:.\bleconnection.c ****             return ERROR_BLE_CONNECTION_ERASE_BONDED_DEVICE;
 667              		.loc 1 409 0
 668 004e 0720     		mov	r0, #7
 669              	.LVL95:
 670 0050 02E0     		b	.L49
 671              	.LVL96:
 672              	.L55:
 414:.\bleconnection.c ****             return ERROR_BLE_CONNECTION_GET_BONDED_DEVICE_LIST;
 673              		.loc 1 414 0
 674 0052 0620     		mov	r0, #6
 675              	.LVL97:
 676 0054 00E0     		b	.L49
 677              	.LVL98:
 678              	.L57:
 422:.\bleconnection.c ****     }
 423:.\bleconnection.c ****     else{
 424:.\bleconnection.c ****         return ERROR_BLE_CONNECTION_NONE;
 679              		.loc 1 424 0
 680 0056 0020     		mov	r0, #0
 681              	.LVL99:
 682              	.L49:
 425:.\bleconnection.c ****     }
 426:.\bleconnection.c **** }
 683              		.loc 1 426 0
 684              		@ sp needed
 685              	.LVL100:
 686 0058 38BD     		pop	{r3, r4, r5, pc}
 687              	.L59:
 688 005a C046     		.align	2
 689              	.L58:
ARM GAS  C:\Users\David\AppData\Local\Temp\ccZhbYDC.s 			page 21


 690 005c FFFF0000 		.word	65535
 691              		.cfi_endproc
 692              	.LFE45:
 693              		.size	_BleConnectionUpdateBondedDeviceList, .-_BleConnectionUpdateBondedDeviceList
 694              		.section	.text.BleConnectionFinalizeAuthentification,"ax",%progbits
 695              		.align	2
 696              		.global	BleConnectionFinalizeAuthentification
 697              		.code	16
 698              		.thumb_func
 699              		.type	BleConnectionFinalizeAuthentification, %function
 700              	BleConnectionFinalizeAuthentification:
 701              	.LFB40:
 219:.\bleconnection.c **** bleConnectionError_t BleConnectionFinalizeAuthentification(bleConnection_t* ble, void* eventParam){
 702              		.loc 1 219 0
 703              		.cfi_startproc
 704              	.LVL101:
 705 0000 08B5     		push	{r3, lr}
 706              		.cfi_def_cfa_offset 8
 707              		.cfi_offset 3, -8
 708              		.cfi_offset 14, -4
 709              	.LVL102:
 224:.\bleconnection.c ****     status = _BleConnectionUpdateBondedDeviceList(ble);
 710              		.loc 1 224 0
 711 0002 FFF7FEFF 		bl	_BleConnectionUpdateBondedDeviceList
 712              	.LVL103:
 226:.\bleconnection.c **** }
 713              		.loc 1 226 0
 714              		@ sp needed
 715 0006 08BD     		pop	{r3, pc}
 716              		.cfi_endproc
 717              	.LFE40:
 718              		.size	BleConnectionFinalizeAuthentification, .-BleConnectionFinalizeAuthentification
 719              		.global	clearAllDevices
 720              		.bss
 721              		.align	2
 722              		.type	clearAllDevices, %object
 723              		.size	clearAllDevices, 7
 724              	clearAllDevices:
 725 0000 00000000 		.space	7
 725      000000
 726 0007 00       		.text
 727              	.Letext0:
 728              		.file 2 "c:\\program files (x86)\\cypress\\psoc creator\\3.2\\psoc creator\\import\\gnu\\arm\\4.8.
 729              		.file 3 "c:\\program files (x86)\\cypress\\psoc creator\\3.2\\psoc creator\\import\\gnu\\arm\\4.8.
 730              		.file 4 "Generated_Source\\PSoC4/cytypes.h"
 731              		.file 5 "Generated_Source\\PSoC4/BLE_Stack.h"
 732              		.file 6 "Generated_Source\\PSoC4/BLE_StackGap.h"
 733              		.file 7 "Generated_Source\\PSoC4/BLE_StackGatt.h"
 734              		.file 8 "Generated_Source\\PSoC4/BLE.h"
 735              		.file 9 "Generated_Source\\PSoC4/BLE_eventHandler.h"
 736              		.file 10 ".\\bleconnection.h"
 737              		.file 11 "c:\\program files (x86)\\cypress\\psoc creator\\3.2\\psoc creator\\import\\gnu\\arm\\4.8