ARM GAS  C:\Users\David\AppData\Local\Temp\cclrA1ah.s 			page 1


   1              		.cpu cortex-m0
   2              		.fpu softvfp
   3              		.eabi_attribute 20, 1
   4              		.eabi_attribute 21, 1
   5              		.eabi_attribute 23, 3
   6              		.eabi_attribute 24, 1
   7              		.eabi_attribute 25, 1
   8              		.eabi_attribute 26, 1
   9              		.eabi_attribute 30, 1
  10              		.eabi_attribute 34, 0
  11              		.eabi_attribute 18, 4
  12              		.code	16
  13              		.file	"LCD.c"
  14              		.text
  15              	.Ltext0:
  16              		.cfi_sections	.debug_frame
  17              		.section	.text.LCD_WrCntrlNib,"ax",%progbits
  18              		.align	2
  19              		.code	16
  20              		.thumb_func
  21              		.type	LCD_WrCntrlNib, %function
  22              	LCD_WrCntrlNib:
  23              	.LFB13:
  24              		.file 1 ".\\Generated_Source\\PSoC4\\LCD.c"
   1:.\Generated_Source\PSoC4/LCD.c **** /*******************************************************************************
   2:.\Generated_Source\PSoC4/LCD.c **** * File Name: LCD.c
   3:.\Generated_Source\PSoC4/LCD.c **** * Version 2.10
   4:.\Generated_Source\PSoC4/LCD.c **** *
   5:.\Generated_Source\PSoC4/LCD.c **** * Description:
   6:.\Generated_Source\PSoC4/LCD.c **** *  This file provides source code for the Character LCD component's API.
   7:.\Generated_Source\PSoC4/LCD.c **** *
   8:.\Generated_Source\PSoC4/LCD.c **** * Note:
   9:.\Generated_Source\PSoC4/LCD.c **** *
  10:.\Generated_Source\PSoC4/LCD.c **** ********************************************************************************
  11:.\Generated_Source\PSoC4/LCD.c **** * Copyright 2008-2014, Cypress Semiconductor Corporation.  All rights reserved.
  12:.\Generated_Source\PSoC4/LCD.c **** * You may use this file only in accordance with the license, terms, conditions,
  13:.\Generated_Source\PSoC4/LCD.c **** * disclaimers, and limitations in the end user license agreement accompanying
  14:.\Generated_Source\PSoC4/LCD.c **** * the software package with which this file was provided.
  15:.\Generated_Source\PSoC4/LCD.c **** *******************************************************************************/
  16:.\Generated_Source\PSoC4/LCD.c **** 
  17:.\Generated_Source\PSoC4/LCD.c **** #include "CyLib.h"
  18:.\Generated_Source\PSoC4/LCD.c **** #include "LCD.h"
  19:.\Generated_Source\PSoC4/LCD.c **** 
  20:.\Generated_Source\PSoC4/LCD.c **** 
  21:.\Generated_Source\PSoC4/LCD.c **** static void LCD_WrDatNib(uint8 nibble) ;
  22:.\Generated_Source\PSoC4/LCD.c **** static void LCD_WrCntrlNib(uint8 nibble) ;
  23:.\Generated_Source\PSoC4/LCD.c **** 
  24:.\Generated_Source\PSoC4/LCD.c **** /* Stores state of component. Indicates whether component is or not
  25:.\Generated_Source\PSoC4/LCD.c **** * in enable state.
  26:.\Generated_Source\PSoC4/LCD.c **** */
  27:.\Generated_Source\PSoC4/LCD.c **** uint8 LCD_enableState = 0u;
  28:.\Generated_Source\PSoC4/LCD.c **** 
  29:.\Generated_Source\PSoC4/LCD.c **** uint8 LCD_initVar = 0u;
  30:.\Generated_Source\PSoC4/LCD.c **** 
  31:.\Generated_Source\PSoC4/LCD.c **** 
  32:.\Generated_Source\PSoC4/LCD.c **** /*******************************************************************************
  33:.\Generated_Source\PSoC4/LCD.c **** * Function Name: LCD_Init
ARM GAS  C:\Users\David\AppData\Local\Temp\cclrA1ah.s 			page 2


  34:.\Generated_Source\PSoC4/LCD.c **** ********************************************************************************
  35:.\Generated_Source\PSoC4/LCD.c **** *
  36:.\Generated_Source\PSoC4/LCD.c **** * Summary:
  37:.\Generated_Source\PSoC4/LCD.c **** *  Performs initialization required for the components normal work.
  38:.\Generated_Source\PSoC4/LCD.c **** *  This function initializes the LCD hardware module as follows:
  39:.\Generated_Source\PSoC4/LCD.c **** *        Enables a 4-bit interface
  40:.\Generated_Source\PSoC4/LCD.c **** *        Clears the display
  41:.\Generated_Source\PSoC4/LCD.c **** *        Enables the auto cursor increment
  42:.\Generated_Source\PSoC4/LCD.c **** *        Resets the cursor to start position
  43:.\Generated_Source\PSoC4/LCD.c **** *  Also, it loads a custom character set to the LCD if it was defined in the customizer.
  44:.\Generated_Source\PSoC4/LCD.c **** *
  45:.\Generated_Source\PSoC4/LCD.c **** * Parameters:
  46:.\Generated_Source\PSoC4/LCD.c **** *  None.
  47:.\Generated_Source\PSoC4/LCD.c **** *
  48:.\Generated_Source\PSoC4/LCD.c **** * Return:
  49:.\Generated_Source\PSoC4/LCD.c **** *  None.
  50:.\Generated_Source\PSoC4/LCD.c **** *
  51:.\Generated_Source\PSoC4/LCD.c **** * Reentrant:
  52:.\Generated_Source\PSoC4/LCD.c **** *  No.
  53:.\Generated_Source\PSoC4/LCD.c **** *
  54:.\Generated_Source\PSoC4/LCD.c **** *******************************************************************************/
  55:.\Generated_Source\PSoC4/LCD.c **** void LCD_Init(void) 
  56:.\Generated_Source\PSoC4/LCD.c **** {
  57:.\Generated_Source\PSoC4/LCD.c ****     /* INIT CODE */
  58:.\Generated_Source\PSoC4/LCD.c ****     CyDelay(40u);                                                        /* Delay 40 ms */
  59:.\Generated_Source\PSoC4/LCD.c ****     LCD_WrCntrlNib(LCD_DISPLAY_8_BIT_INIT);    /* Selects 8-bit mode */
  60:.\Generated_Source\PSoC4/LCD.c ****     CyDelay(5u);                                                         /* Delay 5 ms */
  61:.\Generated_Source\PSoC4/LCD.c ****     LCD_WrCntrlNib(LCD_DISPLAY_8_BIT_INIT);    /* Selects 8-bit mode */
  62:.\Generated_Source\PSoC4/LCD.c ****     CyDelay(15u);                                                        /* Delay 15 ms */
  63:.\Generated_Source\PSoC4/LCD.c ****     LCD_WrCntrlNib(LCD_DISPLAY_8_BIT_INIT);    /* Selects 8-bit mode */
  64:.\Generated_Source\PSoC4/LCD.c ****     CyDelay(1u);                                                         /* Delay 1 ms */
  65:.\Generated_Source\PSoC4/LCD.c ****     LCD_WrCntrlNib(LCD_DISPLAY_4_BIT_INIT);    /* Selects 4-bit mode */
  66:.\Generated_Source\PSoC4/LCD.c ****     CyDelay(5u);                                                         /* Delay 5 ms */
  67:.\Generated_Source\PSoC4/LCD.c **** 
  68:.\Generated_Source\PSoC4/LCD.c ****     LCD_WriteControl(LCD_CURSOR_AUTO_INCR_ON);    /* Incr Cursor After Writes */
  69:.\Generated_Source\PSoC4/LCD.c ****     LCD_WriteControl(LCD_DISPLAY_CURSOR_ON);      /* Turn Display, Cursor ON */
  70:.\Generated_Source\PSoC4/LCD.c ****     LCD_WriteControl(LCD_DISPLAY_2_LINES_5x10);   /* 2 Lines by 5x10 Characters */
  71:.\Generated_Source\PSoC4/LCD.c ****     LCD_WriteControl(LCD_DISPLAY_CURSOR_OFF);     /* Turn Display, Cursor OFF */
  72:.\Generated_Source\PSoC4/LCD.c ****     LCD_WriteControl(LCD_CLEAR_DISPLAY);          /* Clear LCD Screen */
  73:.\Generated_Source\PSoC4/LCD.c ****     LCD_WriteControl(LCD_DISPLAY_ON_CURSOR_OFF);  /* Turn Display ON, Cursor OFF */
  74:.\Generated_Source\PSoC4/LCD.c ****     LCD_WriteControl(LCD_RESET_CURSOR_POSITION);  /* Set Cursor to 0,0 */
  75:.\Generated_Source\PSoC4/LCD.c ****     CyDelay(5u);
  76:.\Generated_Source\PSoC4/LCD.c **** 
  77:.\Generated_Source\PSoC4/LCD.c ****     #if(LCD_CUSTOM_CHAR_SET != LCD_NONE)
  78:.\Generated_Source\PSoC4/LCD.c ****         LCD_LoadCustomFonts(LCD_customFonts);
  79:.\Generated_Source\PSoC4/LCD.c ****     #endif /* LCD_CUSTOM_CHAR_SET != LCD_NONE */
  80:.\Generated_Source\PSoC4/LCD.c **** }
  81:.\Generated_Source\PSoC4/LCD.c **** 
  82:.\Generated_Source\PSoC4/LCD.c **** 
  83:.\Generated_Source\PSoC4/LCD.c **** /*******************************************************************************
  84:.\Generated_Source\PSoC4/LCD.c **** * Function Name: LCD_Enable
  85:.\Generated_Source\PSoC4/LCD.c **** ********************************************************************************
  86:.\Generated_Source\PSoC4/LCD.c **** *
  87:.\Generated_Source\PSoC4/LCD.c **** * Summary:
  88:.\Generated_Source\PSoC4/LCD.c **** *  Turns on the display.
  89:.\Generated_Source\PSoC4/LCD.c **** *
  90:.\Generated_Source\PSoC4/LCD.c **** * Parameters:
ARM GAS  C:\Users\David\AppData\Local\Temp\cclrA1ah.s 			page 3


  91:.\Generated_Source\PSoC4/LCD.c **** *  None.
  92:.\Generated_Source\PSoC4/LCD.c **** *
  93:.\Generated_Source\PSoC4/LCD.c **** * Return:
  94:.\Generated_Source\PSoC4/LCD.c **** *  None.
  95:.\Generated_Source\PSoC4/LCD.c **** *
  96:.\Generated_Source\PSoC4/LCD.c **** * Reentrant:
  97:.\Generated_Source\PSoC4/LCD.c **** *  No.
  98:.\Generated_Source\PSoC4/LCD.c **** *
  99:.\Generated_Source\PSoC4/LCD.c **** * Theory:
 100:.\Generated_Source\PSoC4/LCD.c **** *  This function has no effect when it is called the first time as
 101:.\Generated_Source\PSoC4/LCD.c **** *  LCD_Init() turns on the LCD.
 102:.\Generated_Source\PSoC4/LCD.c **** *
 103:.\Generated_Source\PSoC4/LCD.c **** *******************************************************************************/
 104:.\Generated_Source\PSoC4/LCD.c **** void LCD_Enable(void) 
 105:.\Generated_Source\PSoC4/LCD.c **** {
 106:.\Generated_Source\PSoC4/LCD.c ****     LCD_DisplayOn();
 107:.\Generated_Source\PSoC4/LCD.c ****     LCD_enableState = 1u;
 108:.\Generated_Source\PSoC4/LCD.c **** }
 109:.\Generated_Source\PSoC4/LCD.c **** 
 110:.\Generated_Source\PSoC4/LCD.c **** 
 111:.\Generated_Source\PSoC4/LCD.c **** /*******************************************************************************
 112:.\Generated_Source\PSoC4/LCD.c **** * Function Name: LCD_Start
 113:.\Generated_Source\PSoC4/LCD.c **** ********************************************************************************
 114:.\Generated_Source\PSoC4/LCD.c **** *
 115:.\Generated_Source\PSoC4/LCD.c **** * Summary:
 116:.\Generated_Source\PSoC4/LCD.c **** *  Performs initialization required for the components normal work.
 117:.\Generated_Source\PSoC4/LCD.c **** *  This function initializes the LCD hardware module as follows:
 118:.\Generated_Source\PSoC4/LCD.c **** *        Enables 4-bit interface
 119:.\Generated_Source\PSoC4/LCD.c **** *        Clears the display
 120:.\Generated_Source\PSoC4/LCD.c **** *        Enables auto cursor increment
 121:.\Generated_Source\PSoC4/LCD.c **** *        Resets the cursor to start position
 122:.\Generated_Source\PSoC4/LCD.c **** *  Also, it loads a custom character set to the LCD if it was defined in the customizer.
 123:.\Generated_Source\PSoC4/LCD.c **** *  If it was not the first call in this project, then it just turns on the
 124:.\Generated_Source\PSoC4/LCD.c **** *  display
 125:.\Generated_Source\PSoC4/LCD.c **** *
 126:.\Generated_Source\PSoC4/LCD.c **** *
 127:.\Generated_Source\PSoC4/LCD.c **** * Parameters:
 128:.\Generated_Source\PSoC4/LCD.c **** *  LCD_initVar - global variable.
 129:.\Generated_Source\PSoC4/LCD.c **** *
 130:.\Generated_Source\PSoC4/LCD.c **** * Return:
 131:.\Generated_Source\PSoC4/LCD.c **** *  LCD_initVar - global variable.
 132:.\Generated_Source\PSoC4/LCD.c **** *
 133:.\Generated_Source\PSoC4/LCD.c **** * Reentrant:
 134:.\Generated_Source\PSoC4/LCD.c **** *  No.
 135:.\Generated_Source\PSoC4/LCD.c **** *
 136:.\Generated_Source\PSoC4/LCD.c **** *******************************************************************************/
 137:.\Generated_Source\PSoC4/LCD.c **** void LCD_Start(void) 
 138:.\Generated_Source\PSoC4/LCD.c **** {
 139:.\Generated_Source\PSoC4/LCD.c ****     /* If not initialized, perform initialization */
 140:.\Generated_Source\PSoC4/LCD.c ****     if(LCD_initVar == 0u)
 141:.\Generated_Source\PSoC4/LCD.c ****     {
 142:.\Generated_Source\PSoC4/LCD.c ****         LCD_Init();
 143:.\Generated_Source\PSoC4/LCD.c ****         LCD_initVar = 1u;
 144:.\Generated_Source\PSoC4/LCD.c ****     }
 145:.\Generated_Source\PSoC4/LCD.c **** 
 146:.\Generated_Source\PSoC4/LCD.c ****     /* Turn on the LCD */
 147:.\Generated_Source\PSoC4/LCD.c ****     LCD_Enable();
ARM GAS  C:\Users\David\AppData\Local\Temp\cclrA1ah.s 			page 4


 148:.\Generated_Source\PSoC4/LCD.c **** }
 149:.\Generated_Source\PSoC4/LCD.c **** 
 150:.\Generated_Source\PSoC4/LCD.c **** 
 151:.\Generated_Source\PSoC4/LCD.c **** /*******************************************************************************
 152:.\Generated_Source\PSoC4/LCD.c **** * Function Name: LCD_Stop
 153:.\Generated_Source\PSoC4/LCD.c **** ********************************************************************************
 154:.\Generated_Source\PSoC4/LCD.c **** *
 155:.\Generated_Source\PSoC4/LCD.c **** * Summary:
 156:.\Generated_Source\PSoC4/LCD.c **** *  Turns off the display of the LCD screen.
 157:.\Generated_Source\PSoC4/LCD.c **** *
 158:.\Generated_Source\PSoC4/LCD.c **** * Parameters:
 159:.\Generated_Source\PSoC4/LCD.c **** *  None.
 160:.\Generated_Source\PSoC4/LCD.c **** *
 161:.\Generated_Source\PSoC4/LCD.c **** * Return:
 162:.\Generated_Source\PSoC4/LCD.c **** *  None.
 163:.\Generated_Source\PSoC4/LCD.c **** *
 164:.\Generated_Source\PSoC4/LCD.c **** * Reentrant:
 165:.\Generated_Source\PSoC4/LCD.c **** *  No.
 166:.\Generated_Source\PSoC4/LCD.c **** *
 167:.\Generated_Source\PSoC4/LCD.c **** *******************************************************************************/
 168:.\Generated_Source\PSoC4/LCD.c **** void LCD_Stop(void) 
 169:.\Generated_Source\PSoC4/LCD.c **** {
 170:.\Generated_Source\PSoC4/LCD.c ****     /* Calls LCD Off Macro */
 171:.\Generated_Source\PSoC4/LCD.c ****     LCD_DisplayOff();
 172:.\Generated_Source\PSoC4/LCD.c ****     LCD_enableState = 0u;
 173:.\Generated_Source\PSoC4/LCD.c **** }
 174:.\Generated_Source\PSoC4/LCD.c **** 
 175:.\Generated_Source\PSoC4/LCD.c **** 
 176:.\Generated_Source\PSoC4/LCD.c **** /*******************************************************************************
 177:.\Generated_Source\PSoC4/LCD.c **** *  Function Name: LCD_Position
 178:.\Generated_Source\PSoC4/LCD.c **** ********************************************************************************
 179:.\Generated_Source\PSoC4/LCD.c **** *
 180:.\Generated_Source\PSoC4/LCD.c **** * Summary:
 181:.\Generated_Source\PSoC4/LCD.c **** *  Moves the active cursor location to a point specified by the input arguments
 182:.\Generated_Source\PSoC4/LCD.c **** *
 183:.\Generated_Source\PSoC4/LCD.c **** * Parameters:
 184:.\Generated_Source\PSoC4/LCD.c **** *  row:    Specific row of LCD module to be written
 185:.\Generated_Source\PSoC4/LCD.c **** *  column: Column of LCD module to be written
 186:.\Generated_Source\PSoC4/LCD.c **** *
 187:.\Generated_Source\PSoC4/LCD.c **** * Return:
 188:.\Generated_Source\PSoC4/LCD.c **** *  None.
 189:.\Generated_Source\PSoC4/LCD.c **** *
 190:.\Generated_Source\PSoC4/LCD.c **** * Note:
 191:.\Generated_Source\PSoC4/LCD.c **** *  This only applies for LCD displays that use the 2X40 address mode.
 192:.\Generated_Source\PSoC4/LCD.c **** *  In this case Row 2 starts with a 0x28 offset from Row 1.
 193:.\Generated_Source\PSoC4/LCD.c **** *  When there are more than 2 rows, each row must be fewer than 20 characters.
 194:.\Generated_Source\PSoC4/LCD.c **** *
 195:.\Generated_Source\PSoC4/LCD.c **** *******************************************************************************/
 196:.\Generated_Source\PSoC4/LCD.c **** void LCD_Position(uint8 row, uint8 column) 
 197:.\Generated_Source\PSoC4/LCD.c **** {
 198:.\Generated_Source\PSoC4/LCD.c ****     switch (row)
 199:.\Generated_Source\PSoC4/LCD.c ****     {
 200:.\Generated_Source\PSoC4/LCD.c ****         case (uint8)0:
 201:.\Generated_Source\PSoC4/LCD.c ****             LCD_WriteControl(LCD_ROW_0_START + column);
 202:.\Generated_Source\PSoC4/LCD.c ****             break;
 203:.\Generated_Source\PSoC4/LCD.c ****         case (uint8) 1:
 204:.\Generated_Source\PSoC4/LCD.c ****             LCD_WriteControl(LCD_ROW_1_START + column);
ARM GAS  C:\Users\David\AppData\Local\Temp\cclrA1ah.s 			page 5


 205:.\Generated_Source\PSoC4/LCD.c ****             break;
 206:.\Generated_Source\PSoC4/LCD.c ****         case (uint8) 2:
 207:.\Generated_Source\PSoC4/LCD.c ****             LCD_WriteControl(LCD_ROW_2_START + column);
 208:.\Generated_Source\PSoC4/LCD.c ****             break;
 209:.\Generated_Source\PSoC4/LCD.c ****         case (uint8) 3:
 210:.\Generated_Source\PSoC4/LCD.c ****             LCD_WriteControl(LCD_ROW_3_START + column);
 211:.\Generated_Source\PSoC4/LCD.c ****             break;
 212:.\Generated_Source\PSoC4/LCD.c ****         default:
 213:.\Generated_Source\PSoC4/LCD.c ****             /* if default case is hit, invalid row argument was passed.*/
 214:.\Generated_Source\PSoC4/LCD.c ****             break;
 215:.\Generated_Source\PSoC4/LCD.c ****     }
 216:.\Generated_Source\PSoC4/LCD.c **** }
 217:.\Generated_Source\PSoC4/LCD.c **** 
 218:.\Generated_Source\PSoC4/LCD.c **** 
 219:.\Generated_Source\PSoC4/LCD.c **** /*******************************************************************************
 220:.\Generated_Source\PSoC4/LCD.c **** * Function Name: LCD_PrintString
 221:.\Generated_Source\PSoC4/LCD.c **** ********************************************************************************
 222:.\Generated_Source\PSoC4/LCD.c **** *
 223:.\Generated_Source\PSoC4/LCD.c **** * Summary:
 224:.\Generated_Source\PSoC4/LCD.c **** *  Writes a zero terminated string to the LCD.
 225:.\Generated_Source\PSoC4/LCD.c **** *
 226:.\Generated_Source\PSoC4/LCD.c **** * Parameters:
 227:.\Generated_Source\PSoC4/LCD.c **** *  string: Pointer to head of char8 array to be written to the LCD module
 228:.\Generated_Source\PSoC4/LCD.c **** *
 229:.\Generated_Source\PSoC4/LCD.c **** * Return:
 230:.\Generated_Source\PSoC4/LCD.c **** *  None.
 231:.\Generated_Source\PSoC4/LCD.c **** *
 232:.\Generated_Source\PSoC4/LCD.c **** *******************************************************************************/
 233:.\Generated_Source\PSoC4/LCD.c **** void LCD_PrintString(char8 const string[]) 
 234:.\Generated_Source\PSoC4/LCD.c **** {
 235:.\Generated_Source\PSoC4/LCD.c ****     uint8 indexU8 = 1u;
 236:.\Generated_Source\PSoC4/LCD.c ****     char8 current = *string;
 237:.\Generated_Source\PSoC4/LCD.c **** 
 238:.\Generated_Source\PSoC4/LCD.c ****     /* Until null is reached, print next character */
 239:.\Generated_Source\PSoC4/LCD.c ****     while((char8) '\0' != current)
 240:.\Generated_Source\PSoC4/LCD.c ****     {
 241:.\Generated_Source\PSoC4/LCD.c ****         LCD_WriteData((uint8)current);
 242:.\Generated_Source\PSoC4/LCD.c ****         current = string[indexU8];
 243:.\Generated_Source\PSoC4/LCD.c ****         indexU8++;
 244:.\Generated_Source\PSoC4/LCD.c ****     }
 245:.\Generated_Source\PSoC4/LCD.c **** }
 246:.\Generated_Source\PSoC4/LCD.c **** 
 247:.\Generated_Source\PSoC4/LCD.c **** 
 248:.\Generated_Source\PSoC4/LCD.c **** /*******************************************************************************
 249:.\Generated_Source\PSoC4/LCD.c **** *  Function Name: LCD_PutChar
 250:.\Generated_Source\PSoC4/LCD.c **** ********************************************************************************
 251:.\Generated_Source\PSoC4/LCD.c **** *
 252:.\Generated_Source\PSoC4/LCD.c **** * Summary:
 253:.\Generated_Source\PSoC4/LCD.c **** *  Writes a single character to the current cursor position of the LCD module.
 254:.\Generated_Source\PSoC4/LCD.c **** *  Custom character names (_CUSTOM_0 through
 255:.\Generated_Source\PSoC4/LCD.c **** *  _CUSTOM_7) are acceptable as inputs.
 256:.\Generated_Source\PSoC4/LCD.c **** *
 257:.\Generated_Source\PSoC4/LCD.c **** * Parameters:
 258:.\Generated_Source\PSoC4/LCD.c **** *  character: Character to be written to LCD
 259:.\Generated_Source\PSoC4/LCD.c **** *
 260:.\Generated_Source\PSoC4/LCD.c **** * Return:
 261:.\Generated_Source\PSoC4/LCD.c **** *  None.
ARM GAS  C:\Users\David\AppData\Local\Temp\cclrA1ah.s 			page 6


 262:.\Generated_Source\PSoC4/LCD.c **** *
 263:.\Generated_Source\PSoC4/LCD.c **** *******************************************************************************/
 264:.\Generated_Source\PSoC4/LCD.c **** void LCD_PutChar(char8 character) 
 265:.\Generated_Source\PSoC4/LCD.c **** {
 266:.\Generated_Source\PSoC4/LCD.c ****     LCD_WriteData((uint8)character);
 267:.\Generated_Source\PSoC4/LCD.c **** }
 268:.\Generated_Source\PSoC4/LCD.c **** 
 269:.\Generated_Source\PSoC4/LCD.c **** 
 270:.\Generated_Source\PSoC4/LCD.c **** /*******************************************************************************
 271:.\Generated_Source\PSoC4/LCD.c **** *  Function Name: LCD_WriteData
 272:.\Generated_Source\PSoC4/LCD.c **** ********************************************************************************
 273:.\Generated_Source\PSoC4/LCD.c **** *
 274:.\Generated_Source\PSoC4/LCD.c **** * Summary:
 275:.\Generated_Source\PSoC4/LCD.c **** *  Writes a data byte to the LCD module's Data Display RAM.
 276:.\Generated_Source\PSoC4/LCD.c **** *
 277:.\Generated_Source\PSoC4/LCD.c **** * Parameters:
 278:.\Generated_Source\PSoC4/LCD.c **** *  dByte: Byte to be written to the LCD module
 279:.\Generated_Source\PSoC4/LCD.c **** *
 280:.\Generated_Source\PSoC4/LCD.c **** * Return:
 281:.\Generated_Source\PSoC4/LCD.c **** *  None.
 282:.\Generated_Source\PSoC4/LCD.c **** *
 283:.\Generated_Source\PSoC4/LCD.c **** *******************************************************************************/
 284:.\Generated_Source\PSoC4/LCD.c **** void LCD_WriteData(uint8 dByte) 
 285:.\Generated_Source\PSoC4/LCD.c **** {
 286:.\Generated_Source\PSoC4/LCD.c ****     uint8 nibble;
 287:.\Generated_Source\PSoC4/LCD.c **** 
 288:.\Generated_Source\PSoC4/LCD.c ****     LCD_IsReady();
 289:.\Generated_Source\PSoC4/LCD.c ****     nibble = dByte >> LCD_NIBBLE_SHIFT;
 290:.\Generated_Source\PSoC4/LCD.c **** 
 291:.\Generated_Source\PSoC4/LCD.c ****     /* Write high nibble */
 292:.\Generated_Source\PSoC4/LCD.c ****     LCD_WrDatNib(nibble);
 293:.\Generated_Source\PSoC4/LCD.c **** 
 294:.\Generated_Source\PSoC4/LCD.c ****     nibble = dByte & LCD_NIBBLE_MASK;
 295:.\Generated_Source\PSoC4/LCD.c ****     /* Write low nibble */
 296:.\Generated_Source\PSoC4/LCD.c ****     LCD_WrDatNib(nibble);
 297:.\Generated_Source\PSoC4/LCD.c **** }
 298:.\Generated_Source\PSoC4/LCD.c **** 
 299:.\Generated_Source\PSoC4/LCD.c **** 
 300:.\Generated_Source\PSoC4/LCD.c **** /*******************************************************************************
 301:.\Generated_Source\PSoC4/LCD.c **** *  Function Name: LCD_WriteControl
 302:.\Generated_Source\PSoC4/LCD.c **** ********************************************************************************
 303:.\Generated_Source\PSoC4/LCD.c **** *
 304:.\Generated_Source\PSoC4/LCD.c **** * Summary:
 305:.\Generated_Source\PSoC4/LCD.c **** *  Writes a command byte to the LCD module.
 306:.\Generated_Source\PSoC4/LCD.c **** *
 307:.\Generated_Source\PSoC4/LCD.c **** * Parameters:
 308:.\Generated_Source\PSoC4/LCD.c **** *  cByte:  The byte to be written to theLCD module
 309:.\Generated_Source\PSoC4/LCD.c **** * 
 310:.\Generated_Source\PSoC4/LCD.c **** * Return:
 311:.\Generated_Source\PSoC4/LCD.c **** *  None.
 312:.\Generated_Source\PSoC4/LCD.c **** *
 313:.\Generated_Source\PSoC4/LCD.c **** *******************************************************************************/
 314:.\Generated_Source\PSoC4/LCD.c **** void LCD_WriteControl(uint8 cByte) 
 315:.\Generated_Source\PSoC4/LCD.c **** {
 316:.\Generated_Source\PSoC4/LCD.c ****     uint8 nibble;
 317:.\Generated_Source\PSoC4/LCD.c **** 
 318:.\Generated_Source\PSoC4/LCD.c ****     LCD_IsReady();
ARM GAS  C:\Users\David\AppData\Local\Temp\cclrA1ah.s 			page 7


 319:.\Generated_Source\PSoC4/LCD.c **** 
 320:.\Generated_Source\PSoC4/LCD.c ****     nibble = cByte >> LCD_NIBBLE_SHIFT;
 321:.\Generated_Source\PSoC4/LCD.c ****     
 322:.\Generated_Source\PSoC4/LCD.c ****     /* WrCntrlNib(High Nibble) */
 323:.\Generated_Source\PSoC4/LCD.c ****     LCD_WrCntrlNib(nibble);
 324:.\Generated_Source\PSoC4/LCD.c ****     nibble = cByte & LCD_NIBBLE_MASK;
 325:.\Generated_Source\PSoC4/LCD.c **** 
 326:.\Generated_Source\PSoC4/LCD.c ****     /* WrCntrlNib(Low Nibble) */
 327:.\Generated_Source\PSoC4/LCD.c ****     LCD_WrCntrlNib(nibble);
 328:.\Generated_Source\PSoC4/LCD.c **** }
 329:.\Generated_Source\PSoC4/LCD.c **** 
 330:.\Generated_Source\PSoC4/LCD.c **** 
 331:.\Generated_Source\PSoC4/LCD.c **** /*******************************************************************************
 332:.\Generated_Source\PSoC4/LCD.c **** * Function Name: LCD_IsReady
 333:.\Generated_Source\PSoC4/LCD.c **** ********************************************************************************
 334:.\Generated_Source\PSoC4/LCD.c **** *
 335:.\Generated_Source\PSoC4/LCD.c **** * Summary:
 336:.\Generated_Source\PSoC4/LCD.c **** *  Polls the LCD until the ready bit is set or a timeout occurs.
 337:.\Generated_Source\PSoC4/LCD.c **** *
 338:.\Generated_Source\PSoC4/LCD.c **** * Parameters:
 339:.\Generated_Source\PSoC4/LCD.c **** *  None.
 340:.\Generated_Source\PSoC4/LCD.c **** *
 341:.\Generated_Source\PSoC4/LCD.c **** * Return:
 342:.\Generated_Source\PSoC4/LCD.c **** *  None.
 343:.\Generated_Source\PSoC4/LCD.c **** *
 344:.\Generated_Source\PSoC4/LCD.c **** * Note:
 345:.\Generated_Source\PSoC4/LCD.c **** *  Changes the pins to High-Z.
 346:.\Generated_Source\PSoC4/LCD.c **** *
 347:.\Generated_Source\PSoC4/LCD.c **** *******************************************************************************/
 348:.\Generated_Source\PSoC4/LCD.c **** void LCD_IsReady(void) 
 349:.\Generated_Source\PSoC4/LCD.c **** {
 350:.\Generated_Source\PSoC4/LCD.c ****     uint32 value;
 351:.\Generated_Source\PSoC4/LCD.c ****     uint32 timeout;
 352:.\Generated_Source\PSoC4/LCD.c ****     timeout = LCD_READY_DELAY;
 353:.\Generated_Source\PSoC4/LCD.c **** 
 354:.\Generated_Source\PSoC4/LCD.c ****     /* Clear LCD port*/
 355:.\Generated_Source\PSoC4/LCD.c ****     LCD_PORT_DR_REG &= ((uint32)(~LCD_PORT_MASK));
 356:.\Generated_Source\PSoC4/LCD.c **** 
 357:.\Generated_Source\PSoC4/LCD.c ****     /* PSoC4 has a little different from PSoC3/5 port/pin organization for setting Drive Modes.
 358:.\Generated_Source\PSoC4/LCD.c ****   
 359:.\Generated_Source\PSoC4/LCD.c ****     */
 360:.\Generated_Source\PSoC4/LCD.c ****     #if (CY_PSOC4)
 361:.\Generated_Source\PSoC4/LCD.c ****         
 362:.\Generated_Source\PSoC4/LCD.c ****         /* Mask off data pins to clear old values out */
 363:.\Generated_Source\PSoC4/LCD.c ****         value = LCD_PORT_PC_REG & ((uint32) (~ LCD_DM_DATA_MASK));
 364:.\Generated_Source\PSoC4/LCD.c ****         /* Load in high Z values for data pins, others unchanged */
 365:.\Generated_Source\PSoC4/LCD.c ****         LCD_PORT_PC_REG = value | LCD_HIGH_Z_DATA_DM;
 366:.\Generated_Source\PSoC4/LCD.c **** 
 367:.\Generated_Source\PSoC4/LCD.c ****     #else
 368:.\Generated_Source\PSoC4/LCD.c ****     
 369:.\Generated_Source\PSoC4/LCD.c ****         /* Change Port to High-Z Status on data pins */
 370:.\Generated_Source\PSoC4/LCD.c **** 
 371:.\Generated_Source\PSoC4/LCD.c ****         /* Mask off data pins to clear old values out */
 372:.\Generated_Source\PSoC4/LCD.c ****         value = LCD_PORT_DM0_REG & ((uint8)(~LCD_DATA_MASK));
 373:.\Generated_Source\PSoC4/LCD.c ****         /* Load in high Z values for data pins, others unchanged */
 374:.\Generated_Source\PSoC4/LCD.c ****         LCD_PORT_DM0_REG = value | (LCD_HIGH_Z_DM0 & LCD_DATA_MASK);
 375:.\Generated_Source\PSoC4/LCD.c **** 
ARM GAS  C:\Users\David\AppData\Local\Temp\cclrA1ah.s 			page 8


 376:.\Generated_Source\PSoC4/LCD.c ****         /* Mask off data pins to clear old values out */
 377:.\Generated_Source\PSoC4/LCD.c ****         value = LCD_PORT_DM1_REG & ((uint8)(~LCD_DATA_MASK));
 378:.\Generated_Source\PSoC4/LCD.c ****         /* Load in high Z values for data pins, others unchanged */
 379:.\Generated_Source\PSoC4/LCD.c ****         LCD_PORT_DM1_REG = value;
 380:.\Generated_Source\PSoC4/LCD.c **** 
 381:.\Generated_Source\PSoC4/LCD.c ****         /* Mask off data pins to clear old values out */
 382:.\Generated_Source\PSoC4/LCD.c ****         value = LCD_PORT_DM2_REG & ((uint8)(~LCD_DATA_MASK));
 383:.\Generated_Source\PSoC4/LCD.c ****         /* Load in high Z values for data pins, others unchanged */
 384:.\Generated_Source\PSoC4/LCD.c ****         LCD_PORT_DM2_REG = value;
 385:.\Generated_Source\PSoC4/LCD.c ****     
 386:.\Generated_Source\PSoC4/LCD.c ****     #endif /* CY_PSOC4 */
 387:.\Generated_Source\PSoC4/LCD.c ****     
 388:.\Generated_Source\PSoC4/LCD.c ****     /* Make sure RS is low */
 389:.\Generated_Source\PSoC4/LCD.c ****     LCD_PORT_DR_REG &= ((uint32)(~LCD_RS));
 390:.\Generated_Source\PSoC4/LCD.c **** 
 391:.\Generated_Source\PSoC4/LCD.c ****     /* Set R/W high to read */
 392:.\Generated_Source\PSoC4/LCD.c ****     LCD_PORT_DR_REG |= LCD_RW;
 393:.\Generated_Source\PSoC4/LCD.c **** 
 394:.\Generated_Source\PSoC4/LCD.c ****     do
 395:.\Generated_Source\PSoC4/LCD.c ****     {
 396:.\Generated_Source\PSoC4/LCD.c ****         /* 40 ns delay required before rising Enable and 500ns between neighbour Enables */
 397:.\Generated_Source\PSoC4/LCD.c ****         CyDelayUs(0u);
 398:.\Generated_Source\PSoC4/LCD.c **** 
 399:.\Generated_Source\PSoC4/LCD.c ****         /* Set E high */
 400:.\Generated_Source\PSoC4/LCD.c ****         LCD_PORT_DR_REG |= LCD_E;
 401:.\Generated_Source\PSoC4/LCD.c **** 
 402:.\Generated_Source\PSoC4/LCD.c ****         /* 360 ns delay setup time for data pins */
 403:.\Generated_Source\PSoC4/LCD.c ****         CyDelayUs(1u);
 404:.\Generated_Source\PSoC4/LCD.c **** 
 405:.\Generated_Source\PSoC4/LCD.c ****         /* Get port state */
 406:.\Generated_Source\PSoC4/LCD.c ****         value = LCD_PORT_PS_REG;
 407:.\Generated_Source\PSoC4/LCD.c **** 
 408:.\Generated_Source\PSoC4/LCD.c ****         /* Set enable low */
 409:.\Generated_Source\PSoC4/LCD.c ****         LCD_PORT_DR_REG &= ((uint32)(~LCD_E));
 410:.\Generated_Source\PSoC4/LCD.c **** 
 411:.\Generated_Source\PSoC4/LCD.c ****         /* This gives true delay between disabling Enable bit and polling Ready bit */
 412:.\Generated_Source\PSoC4/LCD.c ****         CyDelayUs(0u);
 413:.\Generated_Source\PSoC4/LCD.c **** 
 414:.\Generated_Source\PSoC4/LCD.c ****         /* Extract ready bit */
 415:.\Generated_Source\PSoC4/LCD.c ****         value &= LCD_READY_BIT;
 416:.\Generated_Source\PSoC4/LCD.c **** 
 417:.\Generated_Source\PSoC4/LCD.c ****         /* Set E high as we in 4-bit interface we need extra operation */
 418:.\Generated_Source\PSoC4/LCD.c ****         LCD_PORT_DR_REG |= LCD_E;
 419:.\Generated_Source\PSoC4/LCD.c **** 
 420:.\Generated_Source\PSoC4/LCD.c ****         /* 360 ns delay setup time for data pins */
 421:.\Generated_Source\PSoC4/LCD.c ****         CyDelayUs(1u);
 422:.\Generated_Source\PSoC4/LCD.c **** 
 423:.\Generated_Source\PSoC4/LCD.c ****         /* Set enable low */
 424:.\Generated_Source\PSoC4/LCD.c ****         LCD_PORT_DR_REG &= ((uint32)(~LCD_E));
 425:.\Generated_Source\PSoC4/LCD.c **** 
 426:.\Generated_Source\PSoC4/LCD.c ****         /* If LCD is not ready make a delay */
 427:.\Generated_Source\PSoC4/LCD.c ****         if (value == 0u)
 428:.\Generated_Source\PSoC4/LCD.c ****         {
 429:.\Generated_Source\PSoC4/LCD.c ****             CyDelayUs(10u);
 430:.\Generated_Source\PSoC4/LCD.c ****         }
 431:.\Generated_Source\PSoC4/LCD.c **** 
 432:.\Generated_Source\PSoC4/LCD.c ****         /* Repeat until bit 4 is not zero or until timeout. */
ARM GAS  C:\Users\David\AppData\Local\Temp\cclrA1ah.s 			page 9


 433:.\Generated_Source\PSoC4/LCD.c ****         timeout--;
 434:.\Generated_Source\PSoC4/LCD.c **** 
 435:.\Generated_Source\PSoC4/LCD.c ****     } while ((value != 0u) && (timeout > 0u));
 436:.\Generated_Source\PSoC4/LCD.c **** 
 437:.\Generated_Source\PSoC4/LCD.c ****     /* Set R/W low to write */
 438:.\Generated_Source\PSoC4/LCD.c ****     LCD_PORT_DR_REG &= ((uint32)(~LCD_RW));
 439:.\Generated_Source\PSoC4/LCD.c **** 
 440:.\Generated_Source\PSoC4/LCD.c ****     /* Clear LCD port*/
 441:.\Generated_Source\PSoC4/LCD.c ****     LCD_PORT_DR_REG &= ((uint32)(~LCD_PORT_MASK));
 442:.\Generated_Source\PSoC4/LCD.c **** 
 443:.\Generated_Source\PSoC4/LCD.c ****     #if (CY_PSOC4)
 444:.\Generated_Source\PSoC4/LCD.c ****         
 445:.\Generated_Source\PSoC4/LCD.c ****         /* Mask off data pins to clear old values out */
 446:.\Generated_Source\PSoC4/LCD.c ****         value = LCD_PORT_PC_REG & ((uint32)(~ LCD_DM_DATA_MASK));
 447:.\Generated_Source\PSoC4/LCD.c ****         /* Load in high Z values for data pins, others unchanged */
 448:.\Generated_Source\PSoC4/LCD.c ****         LCD_PORT_PC_REG = value | LCD_STRONG_DATA_DM;
 449:.\Generated_Source\PSoC4/LCD.c **** 
 450:.\Generated_Source\PSoC4/LCD.c ****     #else
 451:.\Generated_Source\PSoC4/LCD.c **** 
 452:.\Generated_Source\PSoC4/LCD.c ****         /* Change Port to Output (Strong) on data pins */
 453:.\Generated_Source\PSoC4/LCD.c ****         /* Mask off data pins to clear high z values out. Configure data pins 
 454:.\Generated_Source\PSoC4/LCD.c ****         * to Strong Drive, others unchanged.
 455:.\Generated_Source\PSoC4/LCD.c ****         */
 456:.\Generated_Source\PSoC4/LCD.c ****         LCD_PORT_DM0_REG &= ((uint8)(~LCD_DATA_MASK));
 457:.\Generated_Source\PSoC4/LCD.c ****         /* Mask off data pins to clear high z values out */
 458:.\Generated_Source\PSoC4/LCD.c ****         value = LCD_PORT_DM1_REG & ((uint8)(~LCD_DATA_MASK));
 459:.\Generated_Source\PSoC4/LCD.c ****         /* Configure data pins to Strong Drive, others unchanged */
 460:.\Generated_Source\PSoC4/LCD.c ****         LCD_PORT_DM1_REG = value | (LCD_STRONG_DM1 & LCD_DATA_MASK);
 461:.\Generated_Source\PSoC4/LCD.c **** 
 462:.\Generated_Source\PSoC4/LCD.c ****         /* Mask off data pins to clear high z values out */
 463:.\Generated_Source\PSoC4/LCD.c ****         value = LCD_PORT_DM2_REG & ((uint8)(~LCD_DATA_MASK));
 464:.\Generated_Source\PSoC4/LCD.c ****         /* Configure data pins to Strong Drive, others unchanged */
 465:.\Generated_Source\PSoC4/LCD.c ****         LCD_PORT_DM2_REG = value | (LCD_STRONG_DM2 & LCD_DATA_MASK);
 466:.\Generated_Source\PSoC4/LCD.c ****     
 467:.\Generated_Source\PSoC4/LCD.c ****     #endif /* CY_PSOC4 */
 468:.\Generated_Source\PSoC4/LCD.c **** }
 469:.\Generated_Source\PSoC4/LCD.c **** 
 470:.\Generated_Source\PSoC4/LCD.c **** 
 471:.\Generated_Source\PSoC4/LCD.c **** /*******************************************************************************
 472:.\Generated_Source\PSoC4/LCD.c **** *  Function Name: LCD_WrDatNib
 473:.\Generated_Source\PSoC4/LCD.c **** ********************************************************************************
 474:.\Generated_Source\PSoC4/LCD.c **** *
 475:.\Generated_Source\PSoC4/LCD.c **** * Summary:
 476:.\Generated_Source\PSoC4/LCD.c **** *  Writes a data nibble to the LCD module.
 477:.\Generated_Source\PSoC4/LCD.c **** *
 478:.\Generated_Source\PSoC4/LCD.c **** * Parameters:
 479:.\Generated_Source\PSoC4/LCD.c **** *  nibble:  Byte containing nibble in the least significant nibble to be
 480:.\Generated_Source\PSoC4/LCD.c **** *           written to the LCD module.
 481:.\Generated_Source\PSoC4/LCD.c **** *
 482:.\Generated_Source\PSoC4/LCD.c **** * Return:
 483:.\Generated_Source\PSoC4/LCD.c **** *  None.
 484:.\Generated_Source\PSoC4/LCD.c **** *
 485:.\Generated_Source\PSoC4/LCD.c **** *******************************************************************************/
 486:.\Generated_Source\PSoC4/LCD.c **** static void LCD_WrDatNib(uint8 nibble) 
 487:.\Generated_Source\PSoC4/LCD.c **** {
 488:.\Generated_Source\PSoC4/LCD.c ****     /* RS should be low to select data register */
 489:.\Generated_Source\PSoC4/LCD.c ****     LCD_PORT_DR_REG |= LCD_RS;
ARM GAS  C:\Users\David\AppData\Local\Temp\cclrA1ah.s 			page 10


 490:.\Generated_Source\PSoC4/LCD.c ****     /* Reset RW for write operation */
 491:.\Generated_Source\PSoC4/LCD.c ****     LCD_PORT_DR_REG &= ((uint32)(~LCD_RW));
 492:.\Generated_Source\PSoC4/LCD.c **** 
 493:.\Generated_Source\PSoC4/LCD.c ****     /* Guaranteed delay between Setting RS and RW and setting E bits */
 494:.\Generated_Source\PSoC4/LCD.c ****     CyDelayUs(0u);
 495:.\Generated_Source\PSoC4/LCD.c ****     
 496:.\Generated_Source\PSoC4/LCD.c ****     /* Clear data pins */
 497:.\Generated_Source\PSoC4/LCD.c ****     LCD_PORT_DR_REG &= ((uint32)(~LCD_DATA_MASK));
 498:.\Generated_Source\PSoC4/LCD.c **** 
 499:.\Generated_Source\PSoC4/LCD.c ****     /* Write data, bring E high */
 500:.\Generated_Source\PSoC4/LCD.c ****     #if(0u != LCD_PORT_SHIFT) /* MISRA forbids shift by 0 so need to handle that */
 501:.\Generated_Source\PSoC4/LCD.c ****         LCD_PORT_DR_REG |= 
 502:.\Generated_Source\PSoC4/LCD.c ****             (LCD_E | ((uint8)(((uint8) nibble) << LCD_PORT_SHIFT)));
 503:.\Generated_Source\PSoC4/LCD.c ****     #else
 504:.\Generated_Source\PSoC4/LCD.c ****         LCD_PORT_DR_REG |= (LCD_E | nibble);
 505:.\Generated_Source\PSoC4/LCD.c ****     #endif /* (0u != LCD_PORT_SHIFT) */
 506:.\Generated_Source\PSoC4/LCD.c **** 
 507:.\Generated_Source\PSoC4/LCD.c ****     /* Minimum of 230 ns delay */
 508:.\Generated_Source\PSoC4/LCD.c ****     CyDelayUs(1u);
 509:.\Generated_Source\PSoC4/LCD.c **** 
 510:.\Generated_Source\PSoC4/LCD.c ****     LCD_PORT_DR_REG &= ((uint32)(~LCD_E));
 511:.\Generated_Source\PSoC4/LCD.c **** }
 512:.\Generated_Source\PSoC4/LCD.c **** 
 513:.\Generated_Source\PSoC4/LCD.c **** 
 514:.\Generated_Source\PSoC4/LCD.c **** /*******************************************************************************
 515:.\Generated_Source\PSoC4/LCD.c **** *  Function Name: LCD_WrCntrlNib
 516:.\Generated_Source\PSoC4/LCD.c **** ********************************************************************************
 517:.\Generated_Source\PSoC4/LCD.c **** *
 518:.\Generated_Source\PSoC4/LCD.c **** * Summary:
 519:.\Generated_Source\PSoC4/LCD.c **** *  Writes a control nibble to the LCD module.
 520:.\Generated_Source\PSoC4/LCD.c **** *
 521:.\Generated_Source\PSoC4/LCD.c **** * Parameters:
 522:.\Generated_Source\PSoC4/LCD.c **** *  nibble: The byte containing a nibble in the four least significant bits.????
 523:.\Generated_Source\PSoC4/LCD.c **** *
 524:.\Generated_Source\PSoC4/LCD.c **** * Return:
 525:.\Generated_Source\PSoC4/LCD.c **** *  None.
 526:.\Generated_Source\PSoC4/LCD.c **** *
 527:.\Generated_Source\PSoC4/LCD.c **** *******************************************************************************/
 528:.\Generated_Source\PSoC4/LCD.c **** static void LCD_WrCntrlNib(uint8 nibble) 
 529:.\Generated_Source\PSoC4/LCD.c **** {
  25              		.loc 1 529 0
  26              		.cfi_startproc
  27              	.LVL0:
  28 0000 10B5     		push	{r4, lr}
  29              		.cfi_def_cfa_offset 8
  30              		.cfi_offset 4, -8
  31              		.cfi_offset 14, -4
 530:.\Generated_Source\PSoC4/LCD.c ****     /* RS and RW should be low to select instruction register and  write operation respectively */
 531:.\Generated_Source\PSoC4/LCD.c ****     LCD_PORT_DR_REG &= ((uint32)(~(LCD_RS | LCD_RW)));
  32              		.loc 1 531 0
  33 0002 0B4C     		ldr	r4, .L2
  34 0004 2368     		ldr	r3, [r4]
  35 0006 6022     		mov	r2, #96
  36 0008 9343     		bic	r3, r2
  37 000a 2360     		str	r3, [r4]
 532:.\Generated_Source\PSoC4/LCD.c **** 
 533:.\Generated_Source\PSoC4/LCD.c ****     /* Two following lines of code will give 40ns delay */
ARM GAS  C:\Users\David\AppData\Local\Temp\cclrA1ah.s 			page 11


 534:.\Generated_Source\PSoC4/LCD.c ****     /* Clear data pins */
 535:.\Generated_Source\PSoC4/LCD.c ****     LCD_PORT_DR_REG &= ((uint32)(~LCD_DATA_MASK));
  38              		.loc 1 535 0
  39 000c 2368     		ldr	r3, [r4]
  40 000e 0F22     		mov	r2, #15
  41 0010 9343     		bic	r3, r2
  42 0012 2360     		str	r3, [r4]
 536:.\Generated_Source\PSoC4/LCD.c **** 
 537:.\Generated_Source\PSoC4/LCD.c ****     /* Write control data and set enable signal */
 538:.\Generated_Source\PSoC4/LCD.c ****     #if(0u != LCD_PORT_SHIFT) /* MISRA forbids shift by 0 so need to handle that */
 539:.\Generated_Source\PSoC4/LCD.c ****         LCD_PORT_DR_REG |= 
 540:.\Generated_Source\PSoC4/LCD.c ****             (LCD_E | ((uint8)(((uint8) nibble) << LCD_PORT_SHIFT)));
 541:.\Generated_Source\PSoC4/LCD.c ****     #else
 542:.\Generated_Source\PSoC4/LCD.c ****         LCD_PORT_DR_REG |= (LCD_E | nibble);
  43              		.loc 1 542 0
  44 0014 2368     		ldr	r3, [r4]
  45 0016 1022     		mov	r2, #16
  46 0018 1043     		orr	r0, r2
  47              	.LVL1:
  48 001a 1843     		orr	r0, r3
  49 001c 2060     		str	r0, [r4]
 543:.\Generated_Source\PSoC4/LCD.c ****     #endif /* (0u != LCD_PORT_SHIFT) */
 544:.\Generated_Source\PSoC4/LCD.c **** 
 545:.\Generated_Source\PSoC4/LCD.c ****     /* Minimum of 230 ns delay */
 546:.\Generated_Source\PSoC4/LCD.c ****     CyDelayUs(1u);
  50              		.loc 1 546 0
  51 001e 0120     		mov	r0, #1
  52 0020 FFF7FEFF 		bl	CyDelayUs
  53              	.LVL2:
 547:.\Generated_Source\PSoC4/LCD.c **** 
 548:.\Generated_Source\PSoC4/LCD.c ****     LCD_PORT_DR_REG &= ((uint32)(~LCD_E));
  54              		.loc 1 548 0
  55 0024 2368     		ldr	r3, [r4]
  56 0026 1022     		mov	r2, #16
  57 0028 9343     		bic	r3, r2
  58 002a 2360     		str	r3, [r4]
 549:.\Generated_Source\PSoC4/LCD.c **** }
  59              		.loc 1 549 0
  60              		@ sp needed
  61 002c 10BD     		pop	{r4, pc}
  62              	.L3:
  63 002e C046     		.align	2
  64              	.L2:
  65 0030 00010440 		.word	1074004224
  66              		.cfi_endproc
  67              	.LFE13:
  68              		.size	LCD_WrCntrlNib, .-LCD_WrCntrlNib
  69              		.section	.text.LCD_WrDatNib,"ax",%progbits
  70              		.align	2
  71              		.code	16
  72              		.thumb_func
  73              		.type	LCD_WrDatNib, %function
  74              	LCD_WrDatNib:
  75              	.LFB12:
 487:.\Generated_Source\PSoC4/LCD.c **** {
  76              		.loc 1 487 0
  77              		.cfi_startproc
ARM GAS  C:\Users\David\AppData\Local\Temp\cclrA1ah.s 			page 12


  78              	.LVL3:
  79 0000 38B5     		push	{r3, r4, r5, lr}
  80              		.cfi_def_cfa_offset 16
  81              		.cfi_offset 3, -16
  82              		.cfi_offset 4, -12
  83              		.cfi_offset 5, -8
  84              		.cfi_offset 14, -4
  85 0002 051C     		mov	r5, r0
 489:.\Generated_Source\PSoC4/LCD.c ****     LCD_PORT_DR_REG |= LCD_RS;
  86              		.loc 1 489 0
  87 0004 0E4C     		ldr	r4, .L5
  88 0006 2268     		ldr	r2, [r4]
  89 0008 2023     		mov	r3, #32
  90 000a 1343     		orr	r3, r2
  91 000c 2360     		str	r3, [r4]
 491:.\Generated_Source\PSoC4/LCD.c ****     LCD_PORT_DR_REG &= ((uint32)(~LCD_RW));
  92              		.loc 1 491 0
  93 000e 2368     		ldr	r3, [r4]
  94 0010 4022     		mov	r2, #64
  95 0012 9343     		bic	r3, r2
  96 0014 2360     		str	r3, [r4]
 494:.\Generated_Source\PSoC4/LCD.c ****     CyDelayUs(0u);
  97              		.loc 1 494 0
  98 0016 0020     		mov	r0, #0
  99              	.LVL4:
 100 0018 FFF7FEFF 		bl	CyDelayUs
 101              	.LVL5:
 497:.\Generated_Source\PSoC4/LCD.c ****     LCD_PORT_DR_REG &= ((uint32)(~LCD_DATA_MASK));
 102              		.loc 1 497 0
 103 001c 2368     		ldr	r3, [r4]
 104 001e 0F22     		mov	r2, #15
 105 0020 9343     		bic	r3, r2
 106 0022 2360     		str	r3, [r4]
 504:.\Generated_Source\PSoC4/LCD.c ****         LCD_PORT_DR_REG |= (LCD_E | nibble);
 107              		.loc 1 504 0
 108 0024 2368     		ldr	r3, [r4]
 109 0026 1022     		mov	r2, #16
 110 0028 1543     		orr	r5, r2
 111 002a 1D43     		orr	r5, r3
 112 002c 2560     		str	r5, [r4]
 508:.\Generated_Source\PSoC4/LCD.c ****     CyDelayUs(1u);
 113              		.loc 1 508 0
 114 002e 0120     		mov	r0, #1
 115 0030 FFF7FEFF 		bl	CyDelayUs
 116              	.LVL6:
 510:.\Generated_Source\PSoC4/LCD.c ****     LCD_PORT_DR_REG &= ((uint32)(~LCD_E));
 117              		.loc 1 510 0
 118 0034 2368     		ldr	r3, [r4]
 119 0036 1022     		mov	r2, #16
 120 0038 9343     		bic	r3, r2
 121 003a 2360     		str	r3, [r4]
 511:.\Generated_Source\PSoC4/LCD.c **** }
 122              		.loc 1 511 0
 123              		@ sp needed
 124 003c 38BD     		pop	{r3, r4, r5, pc}
 125              	.L6:
 126 003e C046     		.align	2
ARM GAS  C:\Users\David\AppData\Local\Temp\cclrA1ah.s 			page 13


 127              	.L5:
 128 0040 00010440 		.word	1074004224
 129              		.cfi_endproc
 130              	.LFE12:
 131              		.size	LCD_WrDatNib, .-LCD_WrDatNib
 132              		.section	.text.LCD_IsReady,"ax",%progbits
 133              		.align	2
 134              		.global	LCD_IsReady
 135              		.code	16
 136              		.thumb_func
 137              		.type	LCD_IsReady, %function
 138              	LCD_IsReady:
 139              	.LFB11:
 349:.\Generated_Source\PSoC4/LCD.c **** {
 140              		.loc 1 349 0
 141              		.cfi_startproc
 142 0000 F0B5     		push	{r4, r5, r6, r7, lr}
 143              		.cfi_def_cfa_offset 20
 144              		.cfi_offset 4, -20
 145              		.cfi_offset 5, -16
 146              		.cfi_offset 6, -12
 147              		.cfi_offset 7, -8
 148              		.cfi_offset 14, -4
 149 0002 4746     		mov	r7, r8
 150 0004 80B4     		push	{r7}
 151              		.cfi_def_cfa_offset 24
 152              		.cfi_offset 8, -24
 153              	.LVL7:
 355:.\Generated_Source\PSoC4/LCD.c ****     LCD_PORT_DR_REG &= ((uint32)(~LCD_PORT_MASK));
 154              		.loc 1 355 0
 155 0006 294B     		ldr	r3, .L12
 156 0008 1A68     		ldr	r2, [r3]
 157 000a 7F21     		mov	r1, #127
 158 000c 8A43     		bic	r2, r1
 159 000e 1A60     		str	r2, [r3]
 363:.\Generated_Source\PSoC4/LCD.c ****         value = LCD_PORT_PC_REG & ((uint32) (~ LCD_DM_DATA_MASK));
 160              		.loc 1 363 0
 161 0010 274A     		ldr	r2, .L12+4
 162 0012 1168     		ldr	r1, [r2]
 163 0014 090B     		lsr	r1, r1, #12
 164 0016 0903     		lsl	r1, r1, #12
 165              	.LVL8:
 365:.\Generated_Source\PSoC4/LCD.c ****         LCD_PORT_PC_REG = value | LCD_HIGH_Z_DATA_DM;
 166              		.loc 1 365 0
 167 0018 2648     		ldr	r0, .L12+8
 168 001a 0143     		orr	r1, r0
 169              	.LVL9:
 170 001c 1160     		str	r1, [r2]
 389:.\Generated_Source\PSoC4/LCD.c ****     LCD_PORT_DR_REG &= ((uint32)(~LCD_RS));
 171              		.loc 1 389 0
 172 001e 1A68     		ldr	r2, [r3]
 173 0020 2021     		mov	r1, #32
 174 0022 8A43     		bic	r2, r1
 175 0024 1A60     		str	r2, [r3]
 392:.\Generated_Source\PSoC4/LCD.c ****     LCD_PORT_DR_REG |= LCD_RW;
 176              		.loc 1 392 0
 177 0026 1968     		ldr	r1, [r3]
ARM GAS  C:\Users\David\AppData\Local\Temp\cclrA1ah.s 			page 14


 178 0028 4022     		mov	r2, #64
 179 002a 0A43     		orr	r2, r1
 180 002c 1A60     		str	r2, [r3]
 352:.\Generated_Source\PSoC4/LCD.c ****     timeout = LCD_READY_DELAY;
 181              		.loc 1 352 0
 182 002e CA26     		mov	r6, #202
 183 0030 7600     		lsl	r6, r6, #1
 400:.\Generated_Source\PSoC4/LCD.c ****         LCD_PORT_DR_REG |= LCD_E;
 184              		.loc 1 400 0
 185 0032 1C1C     		mov	r4, r3
 186 0034 1025     		mov	r5, #16
 406:.\Generated_Source\PSoC4/LCD.c ****         value = LCD_PORT_PS_REG;
 187              		.loc 1 406 0
 188 0036 204B     		ldr	r3, .L12+12
 189 0038 9846     		mov	r8, r3
 190              	.LVL10:
 191              	.L10:
 397:.\Generated_Source\PSoC4/LCD.c ****         CyDelayUs(0u);
 192              		.loc 1 397 0
 193 003a 0020     		mov	r0, #0
 194 003c FFF7FEFF 		bl	CyDelayUs
 195              	.LVL11:
 400:.\Generated_Source\PSoC4/LCD.c ****         LCD_PORT_DR_REG |= LCD_E;
 196              		.loc 1 400 0
 197 0040 2368     		ldr	r3, [r4]
 198 0042 2B43     		orr	r3, r5
 199 0044 2360     		str	r3, [r4]
 403:.\Generated_Source\PSoC4/LCD.c ****         CyDelayUs(1u);
 200              		.loc 1 403 0
 201 0046 0120     		mov	r0, #1
 202 0048 FFF7FEFF 		bl	CyDelayUs
 203              	.LVL12:
 406:.\Generated_Source\PSoC4/LCD.c ****         value = LCD_PORT_PS_REG;
 204              		.loc 1 406 0
 205 004c 4346     		mov	r3, r8
 206 004e 1F68     		ldr	r7, [r3]
 207              	.LVL13:
 409:.\Generated_Source\PSoC4/LCD.c ****         LCD_PORT_DR_REG &= ((uint32)(~LCD_E));
 208              		.loc 1 409 0
 209 0050 2368     		ldr	r3, [r4]
 210 0052 AB43     		bic	r3, r5
 211 0054 2360     		str	r3, [r4]
 412:.\Generated_Source\PSoC4/LCD.c ****         CyDelayUs(0u);
 212              		.loc 1 412 0
 213 0056 0020     		mov	r0, #0
 214 0058 FFF7FEFF 		bl	CyDelayUs
 215              	.LVL14:
 415:.\Generated_Source\PSoC4/LCD.c ****         value &= LCD_READY_BIT;
 216              		.loc 1 415 0
 217 005c 0823     		mov	r3, #8
 218 005e 1F40     		and	r7, r3
 219              	.LVL15:
 418:.\Generated_Source\PSoC4/LCD.c ****         LCD_PORT_DR_REG |= LCD_E;
 220              		.loc 1 418 0
 221 0060 2368     		ldr	r3, [r4]
 222 0062 2B43     		orr	r3, r5
 223 0064 2360     		str	r3, [r4]
ARM GAS  C:\Users\David\AppData\Local\Temp\cclrA1ah.s 			page 15


 421:.\Generated_Source\PSoC4/LCD.c ****         CyDelayUs(1u);
 224              		.loc 1 421 0
 225 0066 0120     		mov	r0, #1
 226 0068 FFF7FEFF 		bl	CyDelayUs
 227              	.LVL16:
 424:.\Generated_Source\PSoC4/LCD.c ****         LCD_PORT_DR_REG &= ((uint32)(~LCD_E));
 228              		.loc 1 424 0
 229 006c 2368     		ldr	r3, [r4]
 230 006e AB43     		bic	r3, r5
 231 0070 2360     		str	r3, [r4]
 427:.\Generated_Source\PSoC4/LCD.c ****         if (value == 0u)
 232              		.loc 1 427 0
 233 0072 002F     		cmp	r7, #0
 234 0074 02D1     		bne	.L8
 429:.\Generated_Source\PSoC4/LCD.c ****             CyDelayUs(10u);
 235              		.loc 1 429 0
 236 0076 0A20     		mov	r0, #10
 237 0078 FFF7FEFF 		bl	CyDelayUs
 238              	.LVL17:
 239              	.L8:
 433:.\Generated_Source\PSoC4/LCD.c ****         timeout--;
 240              		.loc 1 433 0
 241 007c 013E     		sub	r6, r6, #1
 242              	.LVL18:
 435:.\Generated_Source\PSoC4/LCD.c ****     } while ((value != 0u) && (timeout > 0u));
 243              		.loc 1 435 0
 244 007e 002F     		cmp	r7, #0
 245 0080 01D0     		beq	.L9
 435:.\Generated_Source\PSoC4/LCD.c ****     } while ((value != 0u) && (timeout > 0u));
 246              		.loc 1 435 0 is_stmt 0 discriminator 1
 247 0082 002E     		cmp	r6, #0
 248 0084 D9D1     		bne	.L10
 249              	.L9:
 438:.\Generated_Source\PSoC4/LCD.c ****     LCD_PORT_DR_REG &= ((uint32)(~LCD_RW));
 250              		.loc 1 438 0 is_stmt 1
 251 0086 094B     		ldr	r3, .L12
 252 0088 1A68     		ldr	r2, [r3]
 253 008a 4021     		mov	r1, #64
 254 008c 8A43     		bic	r2, r1
 255 008e 1A60     		str	r2, [r3]
 441:.\Generated_Source\PSoC4/LCD.c ****     LCD_PORT_DR_REG &= ((uint32)(~LCD_PORT_MASK));
 256              		.loc 1 441 0
 257 0090 1A68     		ldr	r2, [r3]
 258 0092 7F21     		mov	r1, #127
 259 0094 8A43     		bic	r2, r1
 260 0096 1A60     		str	r2, [r3]
 446:.\Generated_Source\PSoC4/LCD.c ****         value = LCD_PORT_PC_REG & ((uint32)(~ LCD_DM_DATA_MASK));
 261              		.loc 1 446 0
 262 0098 054B     		ldr	r3, .L12+4
 263 009a 1A68     		ldr	r2, [r3]
 264 009c 120B     		lsr	r2, r2, #12
 265 009e 1203     		lsl	r2, r2, #12
 266              	.LVL19:
 448:.\Generated_Source\PSoC4/LCD.c ****         LCD_PORT_PC_REG = value | LCD_STRONG_DATA_DM;
 267              		.loc 1 448 0
 268 00a0 0649     		ldr	r1, .L12+16
 269 00a2 0A43     		orr	r2, r1
ARM GAS  C:\Users\David\AppData\Local\Temp\cclrA1ah.s 			page 16


 270              	.LVL20:
 271 00a4 1A60     		str	r2, [r3]
 468:.\Generated_Source\PSoC4/LCD.c **** }
 272              		.loc 1 468 0
 273              		@ sp needed
 274              	.LVL21:
 275 00a6 04BC     		pop	{r2}
 276 00a8 9046     		mov	r8, r2
 277 00aa F0BD     		pop	{r4, r5, r6, r7, pc}
 278              	.L13:
 279              		.align	2
 280              	.L12:
 281 00ac 00010440 		.word	1074004224
 282 00b0 08010440 		.word	1074004232
 283 00b4 49020000 		.word	585
 284 00b8 04010440 		.word	1074004228
 285 00bc B60D0000 		.word	3510
 286              		.cfi_endproc
 287              	.LFE11:
 288              		.size	LCD_IsReady, .-LCD_IsReady
 289              		.section	.text.LCD_WriteData,"ax",%progbits
 290              		.align	2
 291              		.global	LCD_WriteData
 292              		.code	16
 293              		.thumb_func
 294              		.type	LCD_WriteData, %function
 295              	LCD_WriteData:
 296              	.LFB9:
 285:.\Generated_Source\PSoC4/LCD.c **** {
 297              		.loc 1 285 0
 298              		.cfi_startproc
 299              	.LVL22:
 300 0000 10B5     		push	{r4, lr}
 301              		.cfi_def_cfa_offset 8
 302              		.cfi_offset 4, -8
 303              		.cfi_offset 14, -4
 304 0002 041C     		mov	r4, r0
 288:.\Generated_Source\PSoC4/LCD.c ****     LCD_IsReady();
 305              		.loc 1 288 0
 306 0004 FFF7FEFF 		bl	LCD_IsReady
 307              	.LVL23:
 289:.\Generated_Source\PSoC4/LCD.c ****     nibble = dByte >> LCD_NIBBLE_SHIFT;
 308              		.loc 1 289 0
 309 0008 2009     		lsr	r0, r4, #4
 310              	.LVL24:
 292:.\Generated_Source\PSoC4/LCD.c ****     LCD_WrDatNib(nibble);
 311              		.loc 1 292 0
 312 000a FFF7FEFF 		bl	LCD_WrDatNib
 313              	.LVL25:
 294:.\Generated_Source\PSoC4/LCD.c ****     nibble = dByte & LCD_NIBBLE_MASK;
 314              		.loc 1 294 0
 315 000e 0F20     		mov	r0, #15
 316 0010 2040     		and	r0, r4
 317              	.LVL26:
 296:.\Generated_Source\PSoC4/LCD.c ****     LCD_WrDatNib(nibble);
 318              		.loc 1 296 0
 319 0012 FFF7FEFF 		bl	LCD_WrDatNib
ARM GAS  C:\Users\David\AppData\Local\Temp\cclrA1ah.s 			page 17


 320              	.LVL27:
 297:.\Generated_Source\PSoC4/LCD.c **** }
 321              		.loc 1 297 0
 322              		@ sp needed
 323              	.LVL28:
 324 0016 10BD     		pop	{r4, pc}
 325              		.cfi_endproc
 326              	.LFE9:
 327              		.size	LCD_WriteData, .-LCD_WriteData
 328              		.section	.text.LCD_PrintString,"ax",%progbits
 329              		.align	2
 330              		.global	LCD_PrintString
 331              		.code	16
 332              		.thumb_func
 333              		.type	LCD_PrintString, %function
 334              	LCD_PrintString:
 335              	.LFB7:
 234:.\Generated_Source\PSoC4/LCD.c **** {
 336              		.loc 1 234 0
 337              		.cfi_startproc
 338              	.LVL29:
 339 0000 38B5     		push	{r3, r4, r5, lr}
 340              		.cfi_def_cfa_offset 16
 341              		.cfi_offset 3, -16
 342              		.cfi_offset 4, -12
 343              		.cfi_offset 5, -8
 344              		.cfi_offset 14, -4
 345 0002 051C     		mov	r5, r0
 346              	.LVL30:
 236:.\Generated_Source\PSoC4/LCD.c ****     char8 current = *string;
 347              		.loc 1 236 0
 348 0004 0078     		ldrb	r0, [r0]
 349              	.LVL31:
 235:.\Generated_Source\PSoC4/LCD.c ****     uint8 indexU8 = 1u;
 350              		.loc 1 235 0
 351 0006 0124     		mov	r4, #1
 239:.\Generated_Source\PSoC4/LCD.c ****     while((char8) '\0' != current)
 352              		.loc 1 239 0
 353 0008 04E0     		b	.L16
 354              	.LVL32:
 355              	.L17:
 241:.\Generated_Source\PSoC4/LCD.c ****         LCD_WriteData((uint8)current);
 356              		.loc 1 241 0
 357 000a FFF7FEFF 		bl	LCD_WriteData
 358              	.LVL33:
 242:.\Generated_Source\PSoC4/LCD.c ****         current = string[indexU8];
 359              		.loc 1 242 0
 360 000e 285D     		ldrb	r0, [r5, r4]
 361              	.LVL34:
 243:.\Generated_Source\PSoC4/LCD.c ****         indexU8++;
 362              		.loc 1 243 0
 363 0010 0134     		add	r4, r4, #1
 364              	.LVL35:
 365 0012 E4B2     		uxtb	r4, r4
 366              	.LVL36:
 367              	.L16:
 239:.\Generated_Source\PSoC4/LCD.c ****     while((char8) '\0' != current)
ARM GAS  C:\Users\David\AppData\Local\Temp\cclrA1ah.s 			page 18


 368              		.loc 1 239 0 discriminator 1
 369 0014 0028     		cmp	r0, #0
 370 0016 F8D1     		bne	.L17
 245:.\Generated_Source\PSoC4/LCD.c **** }
 371              		.loc 1 245 0
 372              		@ sp needed
 373              	.LVL37:
 374              	.LVL38:
 375 0018 38BD     		pop	{r3, r4, r5, pc}
 376              		.cfi_endproc
 377              	.LFE7:
 378              		.size	LCD_PrintString, .-LCD_PrintString
 379 001a C046     		.section	.text.LCD_PutChar,"ax",%progbits
 380              		.align	2
 381              		.global	LCD_PutChar
 382              		.code	16
 383              		.thumb_func
 384              		.type	LCD_PutChar, %function
 385              	LCD_PutChar:
 386              	.LFB8:
 265:.\Generated_Source\PSoC4/LCD.c **** {
 387              		.loc 1 265 0
 388              		.cfi_startproc
 389              	.LVL39:
 390 0000 08B5     		push	{r3, lr}
 391              		.cfi_def_cfa_offset 8
 392              		.cfi_offset 3, -8
 393              		.cfi_offset 14, -4
 266:.\Generated_Source\PSoC4/LCD.c ****     LCD_WriteData((uint8)character);
 394              		.loc 1 266 0
 395 0002 FFF7FEFF 		bl	LCD_WriteData
 396              	.LVL40:
 267:.\Generated_Source\PSoC4/LCD.c **** }
 397              		.loc 1 267 0
 398              		@ sp needed
 399 0006 08BD     		pop	{r3, pc}
 400              		.cfi_endproc
 401              	.LFE8:
 402              		.size	LCD_PutChar, .-LCD_PutChar
 403              		.section	.text.LCD_WriteControl,"ax",%progbits
 404              		.align	2
 405              		.global	LCD_WriteControl
 406              		.code	16
 407              		.thumb_func
 408              		.type	LCD_WriteControl, %function
 409              	LCD_WriteControl:
 410              	.LFB10:
 315:.\Generated_Source\PSoC4/LCD.c **** {
 411              		.loc 1 315 0
 412              		.cfi_startproc
 413              	.LVL41:
 414 0000 10B5     		push	{r4, lr}
 415              		.cfi_def_cfa_offset 8
 416              		.cfi_offset 4, -8
 417              		.cfi_offset 14, -4
 418 0002 041C     		mov	r4, r0
 318:.\Generated_Source\PSoC4/LCD.c ****     LCD_IsReady();
ARM GAS  C:\Users\David\AppData\Local\Temp\cclrA1ah.s 			page 19


 419              		.loc 1 318 0
 420 0004 FFF7FEFF 		bl	LCD_IsReady
 421              	.LVL42:
 320:.\Generated_Source\PSoC4/LCD.c ****     nibble = cByte >> LCD_NIBBLE_SHIFT;
 422              		.loc 1 320 0
 423 0008 2009     		lsr	r0, r4, #4
 424              	.LVL43:
 323:.\Generated_Source\PSoC4/LCD.c ****     LCD_WrCntrlNib(nibble);
 425              		.loc 1 323 0
 426 000a FFF7FEFF 		bl	LCD_WrCntrlNib
 427              	.LVL44:
 324:.\Generated_Source\PSoC4/LCD.c ****     nibble = cByte & LCD_NIBBLE_MASK;
 428              		.loc 1 324 0
 429 000e 0F20     		mov	r0, #15
 430 0010 2040     		and	r0, r4
 431              	.LVL45:
 327:.\Generated_Source\PSoC4/LCD.c ****     LCD_WrCntrlNib(nibble);
 432              		.loc 1 327 0
 433 0012 FFF7FEFF 		bl	LCD_WrCntrlNib
 434              	.LVL46:
 328:.\Generated_Source\PSoC4/LCD.c **** }
 435              		.loc 1 328 0
 436              		@ sp needed
 437              	.LVL47:
 438 0016 10BD     		pop	{r4, pc}
 439              		.cfi_endproc
 440              	.LFE10:
 441              		.size	LCD_WriteControl, .-LCD_WriteControl
 442              		.section	.text.LCD_Init,"ax",%progbits
 443              		.align	2
 444              		.global	LCD_Init
 445              		.code	16
 446              		.thumb_func
 447              		.type	LCD_Init, %function
 448              	LCD_Init:
 449              	.LFB2:
  56:.\Generated_Source\PSoC4/LCD.c **** {
 450              		.loc 1 56 0
 451              		.cfi_startproc
 452 0000 08B5     		push	{r3, lr}
 453              		.cfi_def_cfa_offset 8
 454              		.cfi_offset 3, -8
 455              		.cfi_offset 14, -4
  58:.\Generated_Source\PSoC4/LCD.c ****     CyDelay(40u);                                                        /* Delay 40 ms */
 456              		.loc 1 58 0
 457 0002 2820     		mov	r0, #40
 458 0004 FFF7FEFF 		bl	CyDelay
 459              	.LVL48:
  59:.\Generated_Source\PSoC4/LCD.c ****     LCD_WrCntrlNib(LCD_DISPLAY_8_BIT_INIT);    /* Selects 8-bit mode */
 460              		.loc 1 59 0
 461 0008 0320     		mov	r0, #3
 462 000a FFF7FEFF 		bl	LCD_WrCntrlNib
 463              	.LVL49:
  60:.\Generated_Source\PSoC4/LCD.c ****     CyDelay(5u);                                                         /* Delay 5 ms */
 464              		.loc 1 60 0
 465 000e 0520     		mov	r0, #5
 466 0010 FFF7FEFF 		bl	CyDelay
ARM GAS  C:\Users\David\AppData\Local\Temp\cclrA1ah.s 			page 20


 467              	.LVL50:
  61:.\Generated_Source\PSoC4/LCD.c ****     LCD_WrCntrlNib(LCD_DISPLAY_8_BIT_INIT);    /* Selects 8-bit mode */
 468              		.loc 1 61 0
 469 0014 0320     		mov	r0, #3
 470 0016 FFF7FEFF 		bl	LCD_WrCntrlNib
 471              	.LVL51:
  62:.\Generated_Source\PSoC4/LCD.c ****     CyDelay(15u);                                                        /* Delay 15 ms */
 472              		.loc 1 62 0
 473 001a 0F20     		mov	r0, #15
 474 001c FFF7FEFF 		bl	CyDelay
 475              	.LVL52:
  63:.\Generated_Source\PSoC4/LCD.c ****     LCD_WrCntrlNib(LCD_DISPLAY_8_BIT_INIT);    /* Selects 8-bit mode */
 476              		.loc 1 63 0
 477 0020 0320     		mov	r0, #3
 478 0022 FFF7FEFF 		bl	LCD_WrCntrlNib
 479              	.LVL53:
  64:.\Generated_Source\PSoC4/LCD.c ****     CyDelay(1u);                                                         /* Delay 1 ms */
 480              		.loc 1 64 0
 481 0026 0120     		mov	r0, #1
 482 0028 FFF7FEFF 		bl	CyDelay
 483              	.LVL54:
  65:.\Generated_Source\PSoC4/LCD.c ****     LCD_WrCntrlNib(LCD_DISPLAY_4_BIT_INIT);    /* Selects 4-bit mode */
 484              		.loc 1 65 0
 485 002c 0220     		mov	r0, #2
 486 002e FFF7FEFF 		bl	LCD_WrCntrlNib
 487              	.LVL55:
  66:.\Generated_Source\PSoC4/LCD.c ****     CyDelay(5u);                                                         /* Delay 5 ms */
 488              		.loc 1 66 0
 489 0032 0520     		mov	r0, #5
 490 0034 FFF7FEFF 		bl	CyDelay
 491              	.LVL56:
  68:.\Generated_Source\PSoC4/LCD.c ****     LCD_WriteControl(LCD_CURSOR_AUTO_INCR_ON);    /* Incr Cursor After Writes */
 492              		.loc 1 68 0
 493 0038 0620     		mov	r0, #6
 494 003a FFF7FEFF 		bl	LCD_WriteControl
 495              	.LVL57:
  69:.\Generated_Source\PSoC4/LCD.c ****     LCD_WriteControl(LCD_DISPLAY_CURSOR_ON);      /* Turn Display, Cursor ON */
 496              		.loc 1 69 0
 497 003e 0E20     		mov	r0, #14
 498 0040 FFF7FEFF 		bl	LCD_WriteControl
 499              	.LVL58:
  70:.\Generated_Source\PSoC4/LCD.c ****     LCD_WriteControl(LCD_DISPLAY_2_LINES_5x10);   /* 2 Lines by 5x10 Characters */
 500              		.loc 1 70 0
 501 0044 2C20     		mov	r0, #44
 502 0046 FFF7FEFF 		bl	LCD_WriteControl
 503              	.LVL59:
  71:.\Generated_Source\PSoC4/LCD.c ****     LCD_WriteControl(LCD_DISPLAY_CURSOR_OFF);     /* Turn Display, Cursor OFF */
 504              		.loc 1 71 0
 505 004a 0820     		mov	r0, #8
 506 004c FFF7FEFF 		bl	LCD_WriteControl
 507              	.LVL60:
  72:.\Generated_Source\PSoC4/LCD.c ****     LCD_WriteControl(LCD_CLEAR_DISPLAY);          /* Clear LCD Screen */
 508              		.loc 1 72 0
 509 0050 0120     		mov	r0, #1
 510 0052 FFF7FEFF 		bl	LCD_WriteControl
 511              	.LVL61:
  73:.\Generated_Source\PSoC4/LCD.c ****     LCD_WriteControl(LCD_DISPLAY_ON_CURSOR_OFF);  /* Turn Display ON, Cursor OFF */
ARM GAS  C:\Users\David\AppData\Local\Temp\cclrA1ah.s 			page 21


 512              		.loc 1 73 0
 513 0056 0C20     		mov	r0, #12
 514 0058 FFF7FEFF 		bl	LCD_WriteControl
 515              	.LVL62:
  74:.\Generated_Source\PSoC4/LCD.c ****     LCD_WriteControl(LCD_RESET_CURSOR_POSITION);  /* Set Cursor to 0,0 */
 516              		.loc 1 74 0
 517 005c 0320     		mov	r0, #3
 518 005e FFF7FEFF 		bl	LCD_WriteControl
 519              	.LVL63:
  75:.\Generated_Source\PSoC4/LCD.c ****     CyDelay(5u);
 520              		.loc 1 75 0
 521 0062 0520     		mov	r0, #5
 522 0064 FFF7FEFF 		bl	CyDelay
 523              	.LVL64:
  80:.\Generated_Source\PSoC4/LCD.c **** }
 524              		.loc 1 80 0
 525              		@ sp needed
 526 0068 08BD     		pop	{r3, pc}
 527              		.cfi_endproc
 528              	.LFE2:
 529              		.size	LCD_Init, .-LCD_Init
 530 006a C046     		.section	.text.LCD_Enable,"ax",%progbits
 531              		.align	2
 532              		.global	LCD_Enable
 533              		.code	16
 534              		.thumb_func
 535              		.type	LCD_Enable, %function
 536              	LCD_Enable:
 537              	.LFB3:
 105:.\Generated_Source\PSoC4/LCD.c **** {
 538              		.loc 1 105 0
 539              		.cfi_startproc
 540 0000 08B5     		push	{r3, lr}
 541              		.cfi_def_cfa_offset 8
 542              		.cfi_offset 3, -8
 543              		.cfi_offset 14, -4
 106:.\Generated_Source\PSoC4/LCD.c ****     LCD_DisplayOn();
 544              		.loc 1 106 0
 545 0002 0C20     		mov	r0, #12
 546 0004 FFF7FEFF 		bl	LCD_WriteControl
 547              	.LVL65:
 107:.\Generated_Source\PSoC4/LCD.c ****     LCD_enableState = 1u;
 548              		.loc 1 107 0
 549 0008 0122     		mov	r2, #1
 550 000a 014B     		ldr	r3, .L22
 551 000c 1A70     		strb	r2, [r3]
 108:.\Generated_Source\PSoC4/LCD.c **** }
 552              		.loc 1 108 0
 553              		@ sp needed
 554 000e 08BD     		pop	{r3, pc}
 555              	.L23:
 556              		.align	2
 557              	.L22:
 558 0010 00000000 		.word	.LANCHOR0
 559              		.cfi_endproc
 560              	.LFE3:
 561              		.size	LCD_Enable, .-LCD_Enable
ARM GAS  C:\Users\David\AppData\Local\Temp\cclrA1ah.s 			page 22


 562              		.section	.text.LCD_Start,"ax",%progbits
 563              		.align	2
 564              		.global	LCD_Start
 565              		.code	16
 566              		.thumb_func
 567              		.type	LCD_Start, %function
 568              	LCD_Start:
 569              	.LFB4:
 138:.\Generated_Source\PSoC4/LCD.c **** {
 570              		.loc 1 138 0
 571              		.cfi_startproc
 572 0000 08B5     		push	{r3, lr}
 573              		.cfi_def_cfa_offset 8
 574              		.cfi_offset 3, -8
 575              		.cfi_offset 14, -4
 140:.\Generated_Source\PSoC4/LCD.c ****     if(LCD_initVar == 0u)
 576              		.loc 1 140 0
 577 0002 064B     		ldr	r3, .L26
 578 0004 5B78     		ldrb	r3, [r3, #1]
 579 0006 002B     		cmp	r3, #0
 580 0008 04D1     		bne	.L25
 142:.\Generated_Source\PSoC4/LCD.c ****         LCD_Init();
 581              		.loc 1 142 0
 582 000a FFF7FEFF 		bl	LCD_Init
 583              	.LVL66:
 143:.\Generated_Source\PSoC4/LCD.c ****         LCD_initVar = 1u;
 584              		.loc 1 143 0
 585 000e 0122     		mov	r2, #1
 586 0010 024B     		ldr	r3, .L26
 587 0012 5A70     		strb	r2, [r3, #1]
 588              	.L25:
 147:.\Generated_Source\PSoC4/LCD.c ****     LCD_Enable();
 589              		.loc 1 147 0
 590 0014 FFF7FEFF 		bl	LCD_Enable
 591              	.LVL67:
 148:.\Generated_Source\PSoC4/LCD.c **** }
 592              		.loc 1 148 0
 593              		@ sp needed
 594 0018 08BD     		pop	{r3, pc}
 595              	.L27:
 596 001a C046     		.align	2
 597              	.L26:
 598 001c 00000000 		.word	.LANCHOR0
 599              		.cfi_endproc
 600              	.LFE4:
 601              		.size	LCD_Start, .-LCD_Start
 602              		.section	.text.LCD_Stop,"ax",%progbits
 603              		.align	2
 604              		.global	LCD_Stop
 605              		.code	16
 606              		.thumb_func
 607              		.type	LCD_Stop, %function
 608              	LCD_Stop:
 609              	.LFB5:
 169:.\Generated_Source\PSoC4/LCD.c **** {
 610              		.loc 1 169 0
 611              		.cfi_startproc
ARM GAS  C:\Users\David\AppData\Local\Temp\cclrA1ah.s 			page 23


 612 0000 08B5     		push	{r3, lr}
 613              		.cfi_def_cfa_offset 8
 614              		.cfi_offset 3, -8
 615              		.cfi_offset 14, -4
 171:.\Generated_Source\PSoC4/LCD.c ****     LCD_DisplayOff();
 616              		.loc 1 171 0
 617 0002 0820     		mov	r0, #8
 618 0004 FFF7FEFF 		bl	LCD_WriteControl
 619              	.LVL68:
 172:.\Generated_Source\PSoC4/LCD.c ****     LCD_enableState = 0u;
 620              		.loc 1 172 0
 621 0008 0022     		mov	r2, #0
 622 000a 014B     		ldr	r3, .L29
 623 000c 1A70     		strb	r2, [r3]
 173:.\Generated_Source\PSoC4/LCD.c **** }
 624              		.loc 1 173 0
 625              		@ sp needed
 626 000e 08BD     		pop	{r3, pc}
 627              	.L30:
 628              		.align	2
 629              	.L29:
 630 0010 00000000 		.word	.LANCHOR0
 631              		.cfi_endproc
 632              	.LFE5:
 633              		.size	LCD_Stop, .-LCD_Stop
 634              		.section	.text.LCD_Position,"ax",%progbits
 635              		.align	2
 636              		.global	LCD_Position
 637              		.code	16
 638              		.thumb_func
 639              		.type	LCD_Position, %function
 640              	LCD_Position:
 641              	.LFB6:
 197:.\Generated_Source\PSoC4/LCD.c **** {
 642              		.loc 1 197 0
 643              		.cfi_startproc
 644              	.LVL69:
 645 0000 08B5     		push	{r3, lr}
 646              		.cfi_def_cfa_offset 8
 647              		.cfi_offset 3, -8
 648              		.cfi_offset 14, -4
 198:.\Generated_Source\PSoC4/LCD.c ****     switch (row)
 649              		.loc 1 198 0
 650 0002 0128     		cmp	r0, #1
 651 0004 0BD0     		beq	.L33
 652 0006 0028     		cmp	r0, #0
 653 0008 04D0     		beq	.L34
 654 000a 0228     		cmp	r0, #2
 655 000c 0CD0     		beq	.L35
 656 000e 0328     		cmp	r0, #3
 657 0010 0FD0     		beq	.L36
 658 0012 12E0     		b	.L31
 659              	.L34:
 201:.\Generated_Source\PSoC4/LCD.c ****             LCD_WriteControl(LCD_ROW_0_START + column);
 660              		.loc 1 201 0
 661 0014 8039     		sub	r1, r1, #128
 662              	.LVL70:
ARM GAS  C:\Users\David\AppData\Local\Temp\cclrA1ah.s 			page 24


 663 0016 C8B2     		uxtb	r0, r1
 664              	.LVL71:
 665 0018 FFF7FEFF 		bl	LCD_WriteControl
 666              	.LVL72:
 202:.\Generated_Source\PSoC4/LCD.c ****             break;
 667              		.loc 1 202 0
 668 001c 0DE0     		b	.L31
 669              	.LVL73:
 670              	.L33:
 204:.\Generated_Source\PSoC4/LCD.c ****             LCD_WriteControl(LCD_ROW_1_START + column);
 671              		.loc 1 204 0
 672 001e 4039     		sub	r1, r1, #64
 673              	.LVL74:
 674 0020 C8B2     		uxtb	r0, r1
 675              	.LVL75:
 676 0022 FFF7FEFF 		bl	LCD_WriteControl
 677              	.LVL76:
 205:.\Generated_Source\PSoC4/LCD.c ****             break;
 678              		.loc 1 205 0
 679 0026 08E0     		b	.L31
 680              	.LVL77:
 681              	.L35:
 207:.\Generated_Source\PSoC4/LCD.c ****             LCD_WriteControl(LCD_ROW_2_START + column);
 682              		.loc 1 207 0
 683 0028 6C39     		sub	r1, r1, #108
 684              	.LVL78:
 685 002a C8B2     		uxtb	r0, r1
 686              	.LVL79:
 687 002c FFF7FEFF 		bl	LCD_WriteControl
 688              	.LVL80:
 208:.\Generated_Source\PSoC4/LCD.c ****             break;
 689              		.loc 1 208 0
 690 0030 03E0     		b	.L31
 691              	.LVL81:
 692              	.L36:
 210:.\Generated_Source\PSoC4/LCD.c ****             LCD_WriteControl(LCD_ROW_3_START + column);
 693              		.loc 1 210 0
 694 0032 2C39     		sub	r1, r1, #44
 695              	.LVL82:
 696 0034 C8B2     		uxtb	r0, r1
 697              	.LVL83:
 698 0036 FFF7FEFF 		bl	LCD_WriteControl
 699              	.LVL84:
 700              	.L31:
 216:.\Generated_Source\PSoC4/LCD.c **** }
 701              		.loc 1 216 0
 702              		@ sp needed
 703 003a 08BD     		pop	{r3, pc}
 704              		.cfi_endproc
 705              	.LFE6:
 706              		.size	LCD_Position, .-LCD_Position
 707              		.section	.text.LCD_PrintInt8,"ax",%progbits
 708              		.align	2
 709              		.global	LCD_PrintInt8
 710              		.code	16
 711              		.thumb_func
 712              		.type	LCD_PrintInt8, %function
ARM GAS  C:\Users\David\AppData\Local\Temp\cclrA1ah.s 			page 25


 713              	LCD_PrintInt8:
 714              	.LFB14:
 550:.\Generated_Source\PSoC4/LCD.c **** 
 551:.\Generated_Source\PSoC4/LCD.c **** 
 552:.\Generated_Source\PSoC4/LCD.c **** #if(LCD_CONVERSION_ROUTINES == 1u)
 553:.\Generated_Source\PSoC4/LCD.c **** 
 554:.\Generated_Source\PSoC4/LCD.c ****     /*******************************************************************************
 555:.\Generated_Source\PSoC4/LCD.c ****     *  Function Name: LCD_PrintInt8
 556:.\Generated_Source\PSoC4/LCD.c ****     ********************************************************************************
 557:.\Generated_Source\PSoC4/LCD.c ****     *
 558:.\Generated_Source\PSoC4/LCD.c ****     * Summary:
 559:.\Generated_Source\PSoC4/LCD.c ****     *  Print a byte as two ASCII characters.
 560:.\Generated_Source\PSoC4/LCD.c ****     *
 561:.\Generated_Source\PSoC4/LCD.c ****     * Parameters:
 562:.\Generated_Source\PSoC4/LCD.c ****     *  value: The byte to be printed out as ASCII characters.
 563:.\Generated_Source\PSoC4/LCD.c ****     *
 564:.\Generated_Source\PSoC4/LCD.c ****     * Return:
 565:.\Generated_Source\PSoC4/LCD.c ****     *  None.
 566:.\Generated_Source\PSoC4/LCD.c ****     *
 567:.\Generated_Source\PSoC4/LCD.c ****     *******************************************************************************/
 568:.\Generated_Source\PSoC4/LCD.c ****     void LCD_PrintInt8(uint8 value) 
 569:.\Generated_Source\PSoC4/LCD.c ****     {
 715              		.loc 1 569 0
 716              		.cfi_startproc
 717              	.LVL85:
 718 0000 38B5     		push	{r3, r4, r5, lr}
 719              		.cfi_def_cfa_offset 16
 720              		.cfi_offset 3, -16
 721              		.cfi_offset 4, -12
 722              		.cfi_offset 5, -8
 723              		.cfi_offset 14, -4
 724 0002 051C     		mov	r5, r0
 570:.\Generated_Source\PSoC4/LCD.c ****         static char8 const CYCODE LCD_hex[16u] = "0123456789ABCDEF";
 571:.\Generated_Source\PSoC4/LCD.c ****         
 572:.\Generated_Source\PSoC4/LCD.c ****         LCD_PutChar((char8) LCD_hex[value >> LCD_BYTE_UPPER_NIBBLE_SHIFT]);
 725              		.loc 1 572 0
 726 0004 0309     		lsr	r3, r0, #4
 727 0006 054C     		ldr	r4, .L38
 728 0008 E05C     		ldrb	r0, [r4, r3]
 729              	.LVL86:
 730 000a FFF7FEFF 		bl	LCD_PutChar
 731              	.LVL87:
 573:.\Generated_Source\PSoC4/LCD.c ****         LCD_PutChar((char8) LCD_hex[value & LCD_BYTE_LOWER_NIBBLE_MASK]);
 732              		.loc 1 573 0
 733 000e 0F23     		mov	r3, #15
 734 0010 1D40     		and	r5, r3
 735 0012 605D     		ldrb	r0, [r4, r5]
 736 0014 FFF7FEFF 		bl	LCD_PutChar
 737              	.LVL88:
 574:.\Generated_Source\PSoC4/LCD.c ****     }
 738              		.loc 1 574 0
 739              		@ sp needed
 740 0018 38BD     		pop	{r3, r4, r5, pc}
 741              	.L39:
 742 001a C046     		.align	2
 743              	.L38:
 744 001c 00000000 		.word	.LANCHOR1
ARM GAS  C:\Users\David\AppData\Local\Temp\cclrA1ah.s 			page 26


 745              		.cfi_endproc
 746              	.LFE14:
 747              		.size	LCD_PrintInt8, .-LCD_PrintInt8
 748              		.section	.text.LCD_PrintInt16,"ax",%progbits
 749              		.align	2
 750              		.global	LCD_PrintInt16
 751              		.code	16
 752              		.thumb_func
 753              		.type	LCD_PrintInt16, %function
 754              	LCD_PrintInt16:
 755              	.LFB15:
 575:.\Generated_Source\PSoC4/LCD.c **** 
 576:.\Generated_Source\PSoC4/LCD.c **** 
 577:.\Generated_Source\PSoC4/LCD.c ****     /*******************************************************************************
 578:.\Generated_Source\PSoC4/LCD.c ****     *  Function Name: LCD_PrintInt16
 579:.\Generated_Source\PSoC4/LCD.c ****     ********************************************************************************
 580:.\Generated_Source\PSoC4/LCD.c ****     *
 581:.\Generated_Source\PSoC4/LCD.c ****     * Summary:
 582:.\Generated_Source\PSoC4/LCD.c ****     *  Print a uint16 as four ASCII characters.
 583:.\Generated_Source\PSoC4/LCD.c ****     *
 584:.\Generated_Source\PSoC4/LCD.c ****     * Parameters:
 585:.\Generated_Source\PSoC4/LCD.c ****     *  value: The uint16 to be printed out as ASCII characters.
 586:.\Generated_Source\PSoC4/LCD.c ****     *
 587:.\Generated_Source\PSoC4/LCD.c ****     * Return:
 588:.\Generated_Source\PSoC4/LCD.c ****     *  None.
 589:.\Generated_Source\PSoC4/LCD.c ****     *
 590:.\Generated_Source\PSoC4/LCD.c ****     *******************************************************************************/
 591:.\Generated_Source\PSoC4/LCD.c ****     void LCD_PrintInt16(uint16 value) 
 592:.\Generated_Source\PSoC4/LCD.c ****     {
 756              		.loc 1 592 0
 757              		.cfi_startproc
 758              	.LVL89:
 759 0000 10B5     		push	{r4, lr}
 760              		.cfi_def_cfa_offset 8
 761              		.cfi_offset 4, -8
 762              		.cfi_offset 14, -4
 763 0002 041C     		mov	r4, r0
 593:.\Generated_Source\PSoC4/LCD.c ****         LCD_PrintInt8((uint8)(value >> LCD_U16_UPPER_BYTE_SHIFT));
 764              		.loc 1 593 0
 765 0004 000A     		lsr	r0, r0, #8
 766              	.LVL90:
 767 0006 FFF7FEFF 		bl	LCD_PrintInt8
 768              	.LVL91:
 594:.\Generated_Source\PSoC4/LCD.c ****         LCD_PrintInt8((uint8)(value & LCD_U16_LOWER_BYTE_MASK));
 769              		.loc 1 594 0
 770 000a E0B2     		uxtb	r0, r4
 771 000c FFF7FEFF 		bl	LCD_PrintInt8
 772              	.LVL92:
 595:.\Generated_Source\PSoC4/LCD.c ****     }
 773              		.loc 1 595 0
 774              		@ sp needed
 775 0010 10BD     		pop	{r4, pc}
 776              		.cfi_endproc
 777              	.LFE15:
 778              		.size	LCD_PrintInt16, .-LCD_PrintInt16
 779 0012 C046     		.section	.text.LCD_PrintInt32,"ax",%progbits
 780              		.align	2
ARM GAS  C:\Users\David\AppData\Local\Temp\cclrA1ah.s 			page 27


 781              		.global	LCD_PrintInt32
 782              		.code	16
 783              		.thumb_func
 784              		.type	LCD_PrintInt32, %function
 785              	LCD_PrintInt32:
 786              	.LFB16:
 596:.\Generated_Source\PSoC4/LCD.c **** 
 597:.\Generated_Source\PSoC4/LCD.c ****     
 598:.\Generated_Source\PSoC4/LCD.c ****     /*******************************************************************************
 599:.\Generated_Source\PSoC4/LCD.c ****     *  Function Name: LCD_PrintInt32
 600:.\Generated_Source\PSoC4/LCD.c ****     ********************************************************************************
 601:.\Generated_Source\PSoC4/LCD.c ****     *
 602:.\Generated_Source\PSoC4/LCD.c ****     * Summary:
 603:.\Generated_Source\PSoC4/LCD.c ****     *  Print a uint32 hexadecimal number as eight ASCII characters.
 604:.\Generated_Source\PSoC4/LCD.c ****     *
 605:.\Generated_Source\PSoC4/LCD.c ****     * Parameters:
 606:.\Generated_Source\PSoC4/LCD.c ****     *  value: The uint32 to be printed out as ASCII characters.
 607:.\Generated_Source\PSoC4/LCD.c ****     *
 608:.\Generated_Source\PSoC4/LCD.c ****     * Return:
 609:.\Generated_Source\PSoC4/LCD.c ****     *  None.
 610:.\Generated_Source\PSoC4/LCD.c ****     *
 611:.\Generated_Source\PSoC4/LCD.c ****     *******************************************************************************/
 612:.\Generated_Source\PSoC4/LCD.c ****     void LCD_PrintInt32(uint32 value) 
 613:.\Generated_Source\PSoC4/LCD.c ****     {
 787              		.loc 1 613 0
 788              		.cfi_startproc
 789              	.LVL93:
 790 0000 38B5     		push	{r3, r4, r5, lr}
 791              		.cfi_def_cfa_offset 16
 792              		.cfi_offset 3, -16
 793              		.cfi_offset 4, -12
 794              		.cfi_offset 5, -8
 795              		.cfi_offset 14, -4
 796 0002 051C     		mov	r5, r0
 797              	.LVL94:
 614:.\Generated_Source\PSoC4/LCD.c ****         uint8 shift = LCD_32_BIT_SHIFT;
 798              		.loc 1 614 0
 799 0004 2024     		mov	r4, #32
 615:.\Generated_Source\PSoC4/LCD.c ****         
 616:.\Generated_Source\PSoC4/LCD.c ****         while (shift != 0u)
 800              		.loc 1 616 0
 801 0006 06E0     		b	.L42
 802              	.LVL95:
 803              	.L43:
 617:.\Generated_Source\PSoC4/LCD.c ****         {
 618:.\Generated_Source\PSoC4/LCD.c ****             /* "shift" var is to be subtracted by 8 prior shifting. This implements 
 619:.\Generated_Source\PSoC4/LCD.c ****             * shifting by 24, 16, 8 and 0u. 
 620:.\Generated_Source\PSoC4/LCD.c ****             */
 621:.\Generated_Source\PSoC4/LCD.c ****             shift -= LCD_8_BIT_SHIFT;
 804              		.loc 1 621 0
 805 0008 083C     		sub	r4, r4, #8
 806              	.LVL96:
 807 000a E4B2     		uxtb	r4, r4
 808              	.LVL97:
 622:.\Generated_Source\PSoC4/LCD.c ****             
 623:.\Generated_Source\PSoC4/LCD.c ****             /* Print 8 bits of uint32 hex number */
 624:.\Generated_Source\PSoC4/LCD.c ****             LCD_PrintInt8((uint8) ((uint32) (value >> shift)));
ARM GAS  C:\Users\David\AppData\Local\Temp\cclrA1ah.s 			page 28


 809              		.loc 1 624 0
 810 000c 2B1C     		mov	r3, r5
 811 000e E340     		lsr	r3, r3, r4
 812 0010 D8B2     		uxtb	r0, r3
 813 0012 FFF7FEFF 		bl	LCD_PrintInt8
 814              	.LVL98:
 815              	.L42:
 616:.\Generated_Source\PSoC4/LCD.c ****         while (shift != 0u)
 816              		.loc 1 616 0 discriminator 1
 817 0016 002C     		cmp	r4, #0
 818 0018 F6D1     		bne	.L43
 625:.\Generated_Source\PSoC4/LCD.c ****         }
 626:.\Generated_Source\PSoC4/LCD.c ****     }
 819              		.loc 1 626 0
 820              		@ sp needed
 821              	.LVL99:
 822              	.LVL100:
 823 001a 38BD     		pop	{r3, r4, r5, pc}
 824              		.cfi_endproc
 825              	.LFE16:
 826              		.size	LCD_PrintInt32, .-LCD_PrintInt32
 827              		.global	__aeabi_uidivmod
 828              		.global	__aeabi_uidiv
 829              		.section	.text.LCD_PrintU32Number,"ax",%progbits
 830              		.align	2
 831              		.global	LCD_PrintU32Number
 832              		.code	16
 833              		.thumb_func
 834              		.type	LCD_PrintU32Number, %function
 835              	LCD_PrintU32Number:
 836              	.LFB17:
 627:.\Generated_Source\PSoC4/LCD.c ****     
 628:.\Generated_Source\PSoC4/LCD.c ****     
 629:.\Generated_Source\PSoC4/LCD.c ****     /*******************************************************************************
 630:.\Generated_Source\PSoC4/LCD.c ****     *  Function Name: LCD_PrintNumber
 631:.\Generated_Source\PSoC4/LCD.c ****     ********************************************************************************
 632:.\Generated_Source\PSoC4/LCD.c ****     *
 633:.\Generated_Source\PSoC4/LCD.c ****     * Summary:
 634:.\Generated_Source\PSoC4/LCD.c ****     *  Print an uint16 value as a left-justified decimal value.
 635:.\Generated_Source\PSoC4/LCD.c ****     *
 636:.\Generated_Source\PSoC4/LCD.c ****     * Parameters:
 637:.\Generated_Source\PSoC4/LCD.c ****     *  value: A 16-bit value to be printed in ASCII characters as a decimal number
 638:.\Generated_Source\PSoC4/LCD.c ****     *
 639:.\Generated_Source\PSoC4/LCD.c ****     * Return:
 640:.\Generated_Source\PSoC4/LCD.c ****     *  None.
 641:.\Generated_Source\PSoC4/LCD.c ****     *
 642:.\Generated_Source\PSoC4/LCD.c ****     * Note:
 643:.\Generated_Source\PSoC4/LCD.c ****     *  This function is implemented as a macro.
 644:.\Generated_Source\PSoC4/LCD.c ****     *
 645:.\Generated_Source\PSoC4/LCD.c ****     *******************************************************************************/
 646:.\Generated_Source\PSoC4/LCD.c **** 
 647:.\Generated_Source\PSoC4/LCD.c ****     
 648:.\Generated_Source\PSoC4/LCD.c ****     /*******************************************************************************
 649:.\Generated_Source\PSoC4/LCD.c ****     *  Function Name: LCD_PrintU32Number
 650:.\Generated_Source\PSoC4/LCD.c ****     ********************************************************************************
 651:.\Generated_Source\PSoC4/LCD.c ****     *
 652:.\Generated_Source\PSoC4/LCD.c ****     * Summary:
ARM GAS  C:\Users\David\AppData\Local\Temp\cclrA1ah.s 			page 29


 653:.\Generated_Source\PSoC4/LCD.c ****     *  Print an uint32 value as a left-justified decimal value.
 654:.\Generated_Source\PSoC4/LCD.c ****     *
 655:.\Generated_Source\PSoC4/LCD.c ****     * Parameters:
 656:.\Generated_Source\PSoC4/LCD.c ****     *  value: A 32-bit value to be printed in ASCII characters as a decimal number
 657:.\Generated_Source\PSoC4/LCD.c ****     *
 658:.\Generated_Source\PSoC4/LCD.c ****     * Return:
 659:.\Generated_Source\PSoC4/LCD.c ****     *  None.
 660:.\Generated_Source\PSoC4/LCD.c ****     *
 661:.\Generated_Source\PSoC4/LCD.c ****     *******************************************************************************/
 662:.\Generated_Source\PSoC4/LCD.c ****     void LCD_PrintU32Number(uint32 value) 
 663:.\Generated_Source\PSoC4/LCD.c ****     {
 837              		.loc 1 663 0
 838              		.cfi_startproc
 839              	.LVL101:
 840 0000 30B5     		push	{r4, r5, lr}
 841              		.cfi_def_cfa_offset 12
 842              		.cfi_offset 4, -12
 843              		.cfi_offset 5, -8
 844              		.cfi_offset 14, -4
 845 0002 85B0     		sub	sp, sp, #20
 846              		.cfi_def_cfa_offset 32
 847 0004 041C     		mov	r4, r0
 848              	.LVL102:
 664:.\Generated_Source\PSoC4/LCD.c ****         uint8 tmpDigit;
 665:.\Generated_Source\PSoC4/LCD.c ****         char8 number[LCD_NUMBER_OF_REMAINDERS_U32 + 1u];
 666:.\Generated_Source\PSoC4/LCD.c ****         uint8 digIndex = LCD_NUMBER_OF_REMAINDERS_U32;
 667:.\Generated_Source\PSoC4/LCD.c ****         
 668:.\Generated_Source\PSoC4/LCD.c ****         /* This API will output a decimal number as a string and that string will be 
 669:.\Generated_Source\PSoC4/LCD.c ****         * filled from end to start. Set Null termination character first.
 670:.\Generated_Source\PSoC4/LCD.c ****         */
 671:.\Generated_Source\PSoC4/LCD.c ****         number[digIndex] = (char8) '\0';
 849              		.loc 1 671 0
 850 0006 0022     		mov	r2, #0
 851 0008 01AB     		add	r3, sp, #4
 852 000a 9A72     		strb	r2, [r3, #10]
 853              	.LVL103:
 672:.\Generated_Source\PSoC4/LCD.c ****         digIndex--;
 854              		.loc 1 672 0
 855 000c 0925     		mov	r5, #9
 673:.\Generated_Source\PSoC4/LCD.c ****         
 674:.\Generated_Source\PSoC4/LCD.c ****         /* Load these in reverse order */
 675:.\Generated_Source\PSoC4/LCD.c ****         while(value >= LCD_TEN)
 856              		.loc 1 675 0
 857 000e 0DE0     		b	.L45
 858              	.LVL104:
 859              	.L46:
 676:.\Generated_Source\PSoC4/LCD.c ****         {
 677:.\Generated_Source\PSoC4/LCD.c ****             /* Extract decimal digit, indexed by 'digIndex', from 'value' and
 678:.\Generated_Source\PSoC4/LCD.c ****             * convert it to ASCII character.
 679:.\Generated_Source\PSoC4/LCD.c ****             */
 680:.\Generated_Source\PSoC4/LCD.c ****             tmpDigit = (uint8) (((uint8) (value % LCD_TEN)) + (uint8) LCD_ZERO_CHAR_ASCII);
 860              		.loc 1 680 0
 861 0010 201C     		mov	r0, r4
 862              	.LVL105:
 863 0012 0A21     		mov	r1, #10
 864 0014 FFF7FEFF 		bl	__aeabi_uidivmod
 865              	.LVL106:
ARM GAS  C:\Users\David\AppData\Local\Temp\cclrA1ah.s 			page 30


 866 0018 3031     		add	r1, r1, #48
 867              	.LVL107:
 681:.\Generated_Source\PSoC4/LCD.c ****             
 682:.\Generated_Source\PSoC4/LCD.c ****             /* Temporary variable 'tmpDigit' is used to avoid Violation of MISRA rule 
 683:.\Generated_Source\PSoC4/LCD.c ****             * #10.3.
 684:.\Generated_Source\PSoC4/LCD.c ****             */
 685:.\Generated_Source\PSoC4/LCD.c ****             number[digIndex] = (char8) tmpDigit;
 868              		.loc 1 685 0
 869 001a 01AB     		add	r3, sp, #4
 870 001c 5955     		strb	r1, [r3, r5]
 686:.\Generated_Source\PSoC4/LCD.c ****             value /= LCD_TEN;
 871              		.loc 1 686 0
 872 001e 201C     		mov	r0, r4
 873 0020 0A21     		mov	r1, #10
 874              	.LVL108:
 875 0022 FFF7FEFF 		bl	__aeabi_uidiv
 876              	.LVL109:
 877 0026 041C     		mov	r4, r0
 878              	.LVL110:
 687:.\Generated_Source\PSoC4/LCD.c ****             digIndex--;
 879              		.loc 1 687 0
 880 0028 013D     		sub	r5, r5, #1
 881              	.LVL111:
 882 002a EDB2     		uxtb	r5, r5
 883              	.LVL112:
 884              	.L45:
 675:.\Generated_Source\PSoC4/LCD.c ****         while(value >= LCD_TEN)
 885              		.loc 1 675 0 discriminator 1
 886 002c 092C     		cmp	r4, #9
 887 002e EFD8     		bhi	.L46
 688:.\Generated_Source\PSoC4/LCD.c ****         }
 689:.\Generated_Source\PSoC4/LCD.c ****         
 690:.\Generated_Source\PSoC4/LCD.c ****         /* Extract last decimal digit 'digIndex', from the 'value' and convert it
 691:.\Generated_Source\PSoC4/LCD.c ****         * to ASCII character.
 692:.\Generated_Source\PSoC4/LCD.c ****         */
 693:.\Generated_Source\PSoC4/LCD.c ****         tmpDigit = (uint8) (((uint8)(value % LCD_TEN)) + (uint8) LCD_ZERO_CHAR_ASCII);
 888              		.loc 1 693 0
 889 0030 201C     		mov	r0, r4
 890 0032 0A21     		mov	r1, #10
 891 0034 FFF7FEFF 		bl	__aeabi_uidivmod
 892              	.LVL113:
 893 0038 3031     		add	r1, r1, #48
 894              	.LVL114:
 694:.\Generated_Source\PSoC4/LCD.c ****         number[digIndex] = (char8) tmpDigit;
 895              		.loc 1 694 0
 896 003a 01A8     		add	r0, sp, #4
 897 003c 4155     		strb	r1, [r0, r5]
 695:.\Generated_Source\PSoC4/LCD.c **** 
 696:.\Generated_Source\PSoC4/LCD.c ****         /* Print out number */
 697:.\Generated_Source\PSoC4/LCD.c ****         LCD_PrintString(&number[digIndex]);
 898              		.loc 1 697 0
 899 003e 4019     		add	r0, r0, r5
 900 0040 FFF7FEFF 		bl	LCD_PrintString
 901              	.LVL115:
 698:.\Generated_Source\PSoC4/LCD.c ****     }
 902              		.loc 1 698 0
 903 0044 05B0     		add	sp, sp, #20
ARM GAS  C:\Users\David\AppData\Local\Temp\cclrA1ah.s 			page 31


 904              		@ sp needed
 905              	.LVL116:
 906              	.LVL117:
 907 0046 30BD     		pop	{r4, r5, pc}
 908              		.cfi_endproc
 909              	.LFE17:
 910              		.size	LCD_PrintU32Number, .-LCD_PrintU32Number
 911              		.global	LCD_initVar
 912              		.global	LCD_enableState
 913              		.section	.rodata
 914              		.align	2
 915              		.set	.LANCHOR1,. + 0
 916              		.type	LCD_hex.4809, %object
 917              		.size	LCD_hex.4809, 16
 918              	LCD_hex.4809:
 919 0000 30313233 		.ascii	"0123456789ABCDEF"
 919      34353637 
 919      38394142 
 919      43444546 
 920              		.bss
 921              		.set	.LANCHOR0,. + 0
 922              		.type	LCD_enableState, %object
 923              		.size	LCD_enableState, 1
 924              	LCD_enableState:
 925 0000 00       		.space	1
 926              		.type	LCD_initVar, %object
 927              		.size	LCD_initVar, 1
 928              	LCD_initVar:
 929 0001 00       		.space	1
 930              		.text
 931              	.Letext0:
 932              		.file 2 ".\\Generated_Source\\PSoC4\\cytypes.h"
 933              		.file 3 ".\\Generated_Source\\PSoC4\\CyLib.h"