ARM GAS  C:\Users\David\AppData\Local\Temp\ccJmF4HV.s 			page 1


   1              		.cpu cortex-m0
   2              		.fpu softvfp
   3              		.eabi_attribute 20, 1
   4              		.eabi_attribute 21, 1
   5              		.eabi_attribute 23, 3
   6              		.eabi_attribute 24, 1
   7              		.eabi_attribute 25, 1
   8              		.eabi_attribute 26, 1
   9              		.eabi_attribute 30, 1
  10              		.eabi_attribute 34, 0
  11              		.eabi_attribute 18, 4
  12              		.code	16
  13              		.file	"main.c"
  14              		.text
  15              	.Ltext0:
  16              		.cfi_sections	.debug_frame
  17              		.section	.text.StackEventHandler,"ax",%progbits
  18              		.align	2
  19              		.global	StackEventHandler
  20              		.code	16
  21              		.thumb_func
  22              		.type	StackEventHandler, %function
  23              	StackEventHandler:
  24              	.LFB36:
  25              		.file 1 ".\\main.c"
   1:.\main.c      **** /*****************************************************************************
   2:.\main.c      **** * Included headers
   3:.\main.c      **** *****************************************************************************/
   4:.\main.c      **** #include <project.h>
   5:.\main.c      **** #include "bleconnection.h"
   6:.\main.c      **** #include "SerialCommunicationService.h"
   7:.\main.c      **** 
   8:.\main.c      **** /*****************************************************************************
   9:.\main.c      **** * Global variables
  10:.\main.c      **** *****************************************************************************/
  11:.\main.c      **** bleConnection_t bleConnection;
  12:.\main.c      **** serialCommunicaitonService_t serialCommunicationService;
  13:.\main.c      **** 
  14:.\main.c      **** /*****************************************************************************
  15:.\main.c      **** * Private prototypes
  16:.\main.c      **** *****************************************************************************/
  17:.\main.c      **** void StackEventHandler(uint32 event, void* eventParam);
  18:.\main.c      **** 
  19:.\main.c      **** /*****************************************************************************
  20:.\main.c      **** * Main
  21:.\main.c      **** *****************************************************************************/
  22:.\main.c      **** int main()
  23:.\main.c      **** {
  24:.\main.c      ****     /*Init stack*/
  25:.\main.c      ****     BleConnectionInit(&bleConnection, StackEventHandler);
  26:.\main.c      ****     CyGlobalIntEnable; /* Enable global interrupts. */
  27:.\main.c      ****     LCD_Start();
  28:.\main.c      ****     /* Place your initialization/startup code here (e.g. MyInst_Start()) */
  29:.\main.c      ****     LCD_DisplayOn();
  30:.\main.c      ****     LCD_Position(0u, 0u);
  31:.\main.c      ****     LCD_PrintString("Horizontal BG");
  32:.\main.c      ****     LCD_Position(1u, 0u);
ARM GAS  C:\Users\David\AppData\Local\Temp\ccJmF4HV.s 			page 2


  33:.\main.c      ****     LCD_PrintString("Demo complete");
  34:.\main.c      ****     PWM_1_Start();
  35:.\main.c      ****     PWM_2_Start();
  36:.\main.c      ****     for(;;)
  37:.\main.c      ****     {
  38:.\main.c      ****         /* Place your application code here. */
  39:.\main.c      ****         CyBle_ProcessEvents();
  40:.\main.c      ****     }
  41:.\main.c      **** }
  42:.\main.c      **** 
  43:.\main.c      **** /*****************************************************************************
  44:.\main.c      **** * Private functions
  45:.\main.c      **** *****************************************************************************/
  46:.\main.c      **** /*****************************************************************************
  47:.\main.c      **** * Function Name: StackEventHandler()
  48:.\main.c      **** ******************************************************************************
  49:.\main.c      **** *
  50:.\main.c      **** * Summary:
  51:.\main.c      **** *   This is an event callback function to receive events from the BLE Component.
  52:.\main.c      **** *
  53:.\main.c      **** * Parameters:
  54:.\main.c      **** *  event - the event code
  55:.\main.c      **** *  *eventParam - the event parameters
  56:.\main.c      **** *
  57:.\main.c      **** *****************************************************************************/
  58:.\main.c      **** void StackEventHandler(uint32 event, void* eventParam){
  26              		.loc 1 58 0
  27              		.cfi_startproc
  28              	.LVL0:
  29 0000 30B5     		push	{r4, r5, lr}
  30              		.cfi_def_cfa_offset 12
  31              		.cfi_offset 4, -12
  32              		.cfi_offset 5, -8
  33              		.cfi_offset 14, -4
  34 0002 83B0     		sub	sp, sp, #12
  35              		.cfi_def_cfa_offset 24
  36 0004 0C1C     		mov	r4, r1
  59:.\main.c      ****     CYBLE_GAP_SMP_KEY_DIST_T *keys;
  60:.\main.c      ****     CYBLE_GAP_BD_ADDR_T addr;
  61:.\main.c      ****     switch(event)
  37              		.loc 1 61 0
  38 0006 2828     		cmp	r0, #40
  39 0008 15D0     		beq	.L3
  40 000a 06D8     		bhi	.L4
  41 000c 2428     		cmp	r0, #36
  42 000e 21D0     		beq	.L5
  43 0010 2628     		cmp	r0, #38
  44 0012 17D0     		beq	.L6
  45 0014 0128     		cmp	r0, #1
  46 0016 44D1     		bne	.L1
  47 0018 06E0     		b	.L7
  48              	.L4:
  49 001a 4128     		cmp	r0, #65
  50 001c 23D0     		beq	.L8
  51 001e 4C28     		cmp	r0, #76
  52 0020 30D0     		beq	.L9
  53 0022 2C28     		cmp	r0, #44
ARM GAS  C:\Users\David\AppData\Local\Temp\ccJmF4HV.s 			page 3


  54 0024 3DD1     		bne	.L1
  55 0026 19E0     		b	.L10
  56              	.L7:
  62:.\main.c      ****     {
  63:.\main.c      ****         case CYBLE_EVT_STACK_ON:
  64:.\main.c      ****             /* Initialize services*/
  65:.\main.c      ****             SerialCommunicationInit(&serialCommunicationService);
  57              		.loc 1 65 0
  58 0028 1F48     		ldr	r0, .L11
  59              	.LVL1:
  60 002a FFF7FEFF 		bl	SerialCommunicationInit
  61              	.LVL2:
  66:.\main.c      ****             /* Put the device into discoverable mode so that remote peer can see it. */
  67:.\main.c      ****             BleConnectionStartAdvertising(&bleConnection);
  62              		.loc 1 67 0
  63 002e 1F48     		ldr	r0, .L11+4
  64 0030 FFF7FEFF 		bl	BleConnectionStartAdvertising
  65              	.LVL3:
  68:.\main.c      ****             break;
  66              		.loc 1 68 0
  67 0034 35E0     		b	.L1
  68              	.LVL4:
  69              	.L3:
  69:.\main.c      ****         
  70:.\main.c      ****         /********************* GAP EVENTS **************************/
  71:.\main.c      ****             
  72:.\main.c      ****         case CYBLE_EVT_GAP_DEVICE_DISCONNECTED:
  73:.\main.c      ****             /*Reset services*/
  74:.\main.c      ****             SerialCommunicationServiceReset(&serialCommunicationService);
  70              		.loc 1 74 0
  71 0036 1C48     		ldr	r0, .L11
  72              	.LVL5:
  73 0038 FFF7FEFF 		bl	SerialCommunicationServiceReset
  74              	.LVL6:
  75:.\main.c      ****             /* Put the device into discoverable mode so that remote peer can see it. */
  76:.\main.c      ****             BleConnectionStartAdvertising(&bleConnection);
  75              		.loc 1 76 0
  76 003c 1B48     		ldr	r0, .L11+4
  77 003e FFF7FEFF 		bl	BleConnectionStartAdvertising
  78              	.LVL7:
  77:.\main.c      ****             break;
  79              		.loc 1 77 0
  80 0042 2EE0     		b	.L1
  81              	.LVL8:
  82              	.L6:
  78:.\main.c      **** 
  79:.\main.c      ****         case CYBLE_EVT_GAPP_ADVERTISEMENT_START_STOP:
  80:.\main.c      ****             /*To restart Advertisement when the advertisement stopped*/
  81:.\main.c      ****             if(CyBle_GetState() == CYBLE_STATE_DISCONNECTED) {
  83              		.loc 1 81 0
  84 0044 1A4B     		ldr	r3, .L11+8
  85 0046 1B78     		ldrb	r3, [r3]
  86 0048 042B     		cmp	r3, #4
  87 004a 2AD1     		bne	.L1
  82:.\main.c      ****                 BleConnectionStartAdvertising(&bleConnection);
  88              		.loc 1 82 0
  89 004c 1748     		ldr	r0, .L11+4
ARM GAS  C:\Users\David\AppData\Local\Temp\ccJmF4HV.s 			page 4


  90              	.LVL9:
  91 004e FFF7FEFF 		bl	BleConnectionStartAdvertising
  92              	.LVL10:
  93 0052 26E0     		b	.L1
  94              	.LVL11:
  95              	.L5:
  83:.\main.c      ****             }
  84:.\main.c      ****             break;
  85:.\main.c      **** 
  86:.\main.c      ****         case CYBLE_EVT_GAP_DEVICE_CONNECTED:
  87:.\main.c      **** 
  88:.\main.c      ****             break;
  89:.\main.c      ****             
  90:.\main.c      ****             /*Authentification complete with or without error*/
  91:.\main.c      ****             /*Error is handled internaly in BleConnection lib*/
  92:.\main.c      ****         case CYBLE_EVT_GAP_AUTH_COMPLETE:
  93:.\main.c      ****             BleConnectionFinalizeAuthentification(&bleConnection, eventParam);
  96              		.loc 1 93 0
  97 0054 1548     		ldr	r0, .L11+4
  98              	.LVL12:
  99 0056 FFF7FEFF 		bl	BleConnectionFinalizeAuthentification
 100              	.LVL13:
  94:.\main.c      ****             break;
 101              		.loc 1 94 0
 102 005a 22E0     		b	.L1
 103              	.LVL14:
 104              	.L10:
  95:.\main.c      **** 
  96:.\main.c      ****         case CYBLE_EVT_GAP_KEYINFO_EXCHNGE_CMPLT:
  97:.\main.c      ****             /*Get keys*/
  98:.\main.c      ****             keys = (CYBLE_GAP_SMP_KEY_DIST_T *) eventParam;
  99:.\main.c      ****             /*Will be used to create a private address*/
 100:.\main.c      ****             BleConnectionSetIRK(&bleConnection, keys->irkInfo);
 105              		.loc 1 100 0
 106 005c 1A31     		add	r1, r1, #26
 107              	.LVL15:
 108 005e 1348     		ldr	r0, .L11+4
 109              	.LVL16:
 110 0060 FFF7FEFF 		bl	BleConnectionSetIRK
 111              	.LVL17:
 101:.\main.c      ****             break;
 112              		.loc 1 101 0
 113 0064 1DE0     		b	.L1
 114              	.LVL18:
 115              	.L8:
 102:.\main.c      ****             
 103:.\main.c      ****         /********************* GATT EVENTS *************************/
 104:.\main.c      ****         case CYBLE_EVT_GATT_CONNECT_IND:
 105:.\main.c      ****             /* Try to connect */
 106:.\main.c      ****             CyBle_GapGetPeerBdAddr(((CYBLE_CONN_HANDLE_T*)eventParam)->bdHandle, &addr);
 116              		.loc 1 106 0
 117 0066 0878     		ldrb	r0, [r1]
 118              	.LVL19:
 119 0068 6946     		mov	r1, sp
 120              	.LVL20:
 121 006a FFF7FEFF 		bl	CyBle_GapGetPeerBdAddr
 122              	.LVL21:
ARM GAS  C:\Users\David\AppData\Local\Temp\ccJmF4HV.s 			page 5


 107:.\main.c      ****             if(!BleConnectionResolvePeerAddress(&bleConnection , addr)){
 123              		.loc 1 107 0
 124 006e 0F48     		ldr	r0, .L11+4
 125 0070 0099     		ldr	r1, [sp]
 126 0072 019A     		ldr	r2, [sp, #4]
 127 0074 FFF7FEFF 		bl	BleConnectionResolvePeerAddress
 128              	.LVL22:
 129 0078 0028     		cmp	r0, #0
 130 007a 12D1     		bne	.L1
 108:.\main.c      ****                 CyBle_GapDisconnect(((CYBLE_CONN_HANDLE_T*)eventParam)->bdHandle);
 131              		.loc 1 108 0
 132 007c 2078     		ldrb	r0, [r4]
 133 007e FFF7FEFF 		bl	CyBle_GapDisconnect
 134              	.LVL23:
 135 0082 0EE0     		b	.L1
 136              	.LVL24:
 137              	.L9:
 109:.\main.c      ****             }
 110:.\main.c      ****             break; 
 111:.\main.c      ****             
 112:.\main.c      ****                 /*To handle custom service CCCD(Notify request) & Write request*/
 113:.\main.c      ****         case CYBLE_EVT_GATTS_WRITE_REQ:
 114:.\main.c      ****             
 115:.\main.c      ****             /*Rx Characteristic Handler*/
 116:.\main.c      ****             SerialCommunicationServiceCharacteristicHandler(&serialCommunicationService , eventPara
 138              		.loc 1 116 0
 139 0084 084D     		ldr	r5, .L11
 140 0086 281C     		mov	r0, r5
 141              	.LVL25:
 142 0088 FFF7FEFF 		bl	SerialCommunicationServiceCharacteristicHandler
 143              	.LVL26:
 117:.\main.c      ****             /*Tx Characteristic Handler*/
 118:.\main.c      ****             SerialCommunicationServiceNotificationHandler(&serialCommunicationService, eventParam);
 144              		.loc 1 118 0
 145 008c 281C     		mov	r0, r5
 146 008e 211C     		mov	r1, r4
 147 0090 FFF7FEFF 		bl	SerialCommunicationServiceNotificationHandler
 148              	.LVL27:
 119:.\main.c      ****             
 120:.\main.c      ****             /*Write to sender*/
 121:.\main.c      ****             CyBle_GattsWriteRsp(cyBle_connHandle);
 149              		.loc 1 121 0
 150 0094 074B     		ldr	r3, .L11+12
 151 0096 1A78     		ldrb	r2, [r3]
 152 0098 5878     		ldrb	r0, [r3, #1]
 153 009a 0002     		lsl	r0, r0, #8
 154 009c 1043     		orr	r0, r2
 155 009e FFF7FEFF 		bl	CyBle_GattsWriteRsp
 156              	.LVL28:
 157              	.L1:
 122:.\main.c      ****             break;
 123:.\main.c      ****             
 124:.\main.c      ****         default:
 125:.\main.c      ****             break;
 126:.\main.c      ****     }
 127:.\main.c      **** }
 158              		.loc 1 127 0
ARM GAS  C:\Users\David\AppData\Local\Temp\ccJmF4HV.s 			page 6


 159 00a2 03B0     		add	sp, sp, #12
 160              		@ sp needed
 161              	.LVL29:
 162 00a4 30BD     		pop	{r4, r5, pc}
 163              	.L12:
 164 00a6 C046     		.align	2
 165              	.L11:
 166 00a8 00000000 		.word	serialCommunicationService
 167 00ac 00000000 		.word	bleConnection
 168 00b0 00000000 		.word	cyBle_state
 169 00b4 00000000 		.word	cyBle_connHandle
 170              		.cfi_endproc
 171              	.LFE36:
 172              		.size	StackEventHandler, .-StackEventHandler
 173              		.section	.text.main,"ax",%progbits
 174              		.align	2
 175              		.global	main
 176              		.code	16
 177              		.thumb_func
 178              		.type	main, %function
 179              	main:
 180              	.LFB35:
  23:.\main.c      **** {
 181              		.loc 1 23 0
 182              		.cfi_startproc
 183 0000 08B5     		push	{r3, lr}
 184              		.cfi_def_cfa_offset 8
 185              		.cfi_offset 3, -8
 186              		.cfi_offset 14, -4
  25:.\main.c      ****     BleConnectionInit(&bleConnection, StackEventHandler);
 187              		.loc 1 25 0
 188 0002 0F48     		ldr	r0, .L15
 189 0004 0F49     		ldr	r1, .L15+4
 190 0006 FFF7FEFF 		bl	BleConnectionInit
 191              	.LVL30:
  26:.\main.c      ****     CyGlobalIntEnable; /* Enable global interrupts. */
 192              		.loc 1 26 0
 193              	@ 26 ".\main.c" 1
 194 000a 62B6     		CPSIE   i
 195              	@ 0 "" 2
  27:.\main.c      ****     LCD_Start();
 196              		.loc 1 27 0
 197              		.code	16
 198 000c FFF7FEFF 		bl	LCD_Start
 199              	.LVL31:
  29:.\main.c      ****     LCD_DisplayOn();
 200              		.loc 1 29 0
 201 0010 0C20     		mov	r0, #12
 202 0012 FFF7FEFF 		bl	LCD_WriteControl
 203              	.LVL32:
  30:.\main.c      ****     LCD_Position(0u, 0u);
 204              		.loc 1 30 0
 205 0016 0020     		mov	r0, #0
 206 0018 0021     		mov	r1, #0
 207 001a FFF7FEFF 		bl	LCD_Position
 208              	.LVL33:
  31:.\main.c      ****     LCD_PrintString("Horizontal BG");
ARM GAS  C:\Users\David\AppData\Local\Temp\ccJmF4HV.s 			page 7


 209              		.loc 1 31 0
 210 001e 0A48     		ldr	r0, .L15+8
 211 0020 FFF7FEFF 		bl	LCD_PrintString
 212              	.LVL34:
  32:.\main.c      ****     LCD_Position(1u, 0u);
 213              		.loc 1 32 0
 214 0024 0120     		mov	r0, #1
 215 0026 0021     		mov	r1, #0
 216 0028 FFF7FEFF 		bl	LCD_Position
 217              	.LVL35:
  33:.\main.c      ****     LCD_PrintString("Demo complete");
 218              		.loc 1 33 0
 219 002c 0748     		ldr	r0, .L15+12
 220 002e FFF7FEFF 		bl	LCD_PrintString
 221              	.LVL36:
  34:.\main.c      ****     PWM_1_Start();
 222              		.loc 1 34 0
 223 0032 FFF7FEFF 		bl	PWM_1_Start
 224              	.LVL37:
  35:.\main.c      ****     PWM_2_Start();
 225              		.loc 1 35 0
 226 0036 FFF7FEFF 		bl	PWM_2_Start
 227              	.LVL38:
 228              	.L14:
  39:.\main.c      ****         CyBle_ProcessEvents();
 229              		.loc 1 39 0 discriminator 1
 230 003a FFF7FEFF 		bl	CyBle_ProcessEvents
 231              	.LVL39:
 232 003e FCE7     		b	.L14
 233              	.L16:
 234              		.align	2
 235              	.L15:
 236 0040 00000000 		.word	bleConnection
 237 0044 00000000 		.word	StackEventHandler
 238 0048 00000000 		.word	.LC6
 239 004c 10000000 		.word	.LC8
 240              		.cfi_endproc
 241              	.LFE35:
 242              		.size	main, .-main
 243              		.comm	serialCommunicationService,21,4
 244              		.comm	bleConnection,52,4
 245              		.section	.rodata.str1.4,"aMS",%progbits,1
 246              		.align	2
 247              	.LC6:
 248 0000 486F7269 		.ascii	"Horizontal BG\000"
 248      7A6F6E74 
 248      616C2042 
 248      4700
 249 000e 0000     		.space	2
 250              	.LC8:
 251 0010 44656D6F 		.ascii	"Demo complete\000"
 251      20636F6D 
 251      706C6574 
 251      6500
 252 001e 0000     		.text
 253              	.Letext0:
 254              		.file 2 "c:\\program files (x86)\\cypress\\psoc creator\\3.2\\psoc creator\\import\\gnu\\arm\\4.8.
ARM GAS  C:\Users\David\AppData\Local\Temp\ccJmF4HV.s 			page 8


 255              		.file 3 "c:\\program files (x86)\\cypress\\psoc creator\\3.2\\psoc creator\\import\\gnu\\arm\\4.8.
 256              		.file 4 "Generated_Source\\PSoC4/cytypes.h"
 257              		.file 5 "Generated_Source\\PSoC4/BLE_Stack.h"
 258              		.file 6 "Generated_Source\\PSoC4/BLE_StackGap.h"
 259              		.file 7 "Generated_Source\\PSoC4/BLE_StackGatt.h"
 260              		.file 8 "Generated_Source\\PSoC4/BLE.h"
 261              		.file 9 "Generated_Source\\PSoC4/BLE_eventHandler.h"
 262              		.file 10 ".\\bleconnection.h"
 263              		.file 11 ".\\SerialCommunicationService.h"
 264              		.file 12 "Generated_Source\\PSoC4/BLE_StackGattServer.h"
 265              		.file 13 "Generated_Source\\PSoC4/LCD.h"
 266              		.file 14 "Generated_Source\\PSoC4/PWM_1.h"
 267              		.file 15 "Generated_Source\\PSoC4/PWM_2.h"