ARM GAS  C:\Users\David\AppData\Local\Temp\ccT2keBW.s 			page 1


   1              		.cpu cortex-m0
   2              		.fpu softvfp
   3              		.eabi_attribute 20, 1
   4              		.eabi_attribute 21, 1
   5              		.eabi_attribute 23, 3
   6              		.eabi_attribute 24, 1
   7              		.eabi_attribute 25, 1
   8              		.eabi_attribute 26, 1
   9              		.eabi_attribute 30, 1
  10              		.eabi_attribute 34, 0
  11              		.eabi_attribute 18, 4
  12              		.code	16
  13              		.file	"menu.c"
  14              		.text
  15              	.Ltext0:
  16              		.cfi_sections	.debug_frame
  17              		.section	.text.MenuInit,"ax",%progbits
  18              		.align	2
  19              		.global	MenuInit
  20              		.code	16
  21              		.thumb_func
  22              		.type	MenuInit, %function
  23              	MenuInit:
  24              	.LFB35:
  25              		.file 1 ".\\menu.c"
   1:.\menu.c      **** /*! \file Menu.c 
   2:.\menu.c      ****   * \brief handle the menu generation
   3:.\menu.c      ****   */
   4:.\menu.c      **** 
   5:.\menu.c      **** /*****************************************************************************
   6:.\menu.c      **** * Included headers
   7:.\menu.c      **** *****************************************************************************/
   8:.\menu.c      **** #include "menu.h" 
   9:.\menu.c      **** 
  10:.\menu.c      **** /*****************************************************************************
  11:.\menu.c      **** * Public functions
  12:.\menu.c      **** *****************************************************************************/
  13:.\menu.c      **** /*! Function that Initialize the menu structure
  14:.\menu.c      ****  *  \param menu pointer to menu structure
  15:.\menu.c      ****  */
  16:.\menu.c      **** void MenuInit(menu_t* menu){
  26              		.loc 1 16 0
  27              		.cfi_startproc
  28              	.LVL0:
  29 0000 08B5     		push	{r3, lr}
  30              		.cfi_def_cfa_offset 8
  31              		.cfi_offset 3, -8
  32              		.cfi_offset 14, -4
  17:.\menu.c      ****     LCD_Start();
  33              		.loc 1 17 0
  34 0002 FFF7FEFF 		bl	LCD_Start
  35              	.LVL1:
  18:.\menu.c      ****     LCD_ClearDisplay();
  36              		.loc 1 18 0
  37 0006 0120     		mov	r0, #1
  38 0008 FFF7FEFF 		bl	LCD_WriteControl
  39              	.LVL2:
ARM GAS  C:\Users\David\AppData\Local\Temp\ccT2keBW.s 			page 2


  19:.\menu.c      ****     LCD_DisplayOn();
  40              		.loc 1 19 0
  41 000c 0C20     		mov	r0, #12
  42 000e FFF7FEFF 		bl	LCD_WriteControl
  43              	.LVL3:
  20:.\menu.c      ****     LCD_Position(0u, 0u);
  44              		.loc 1 20 0
  45 0012 0020     		mov	r0, #0
  46 0014 0021     		mov	r1, #0
  47 0016 FFF7FEFF 		bl	LCD_Position
  48              	.LVL4:
  21:.\menu.c      ****     LCD_PrintString("Datson Started");
  49              		.loc 1 21 0
  50 001a 0248     		ldr	r0, .L2
  51 001c FFF7FEFF 		bl	LCD_PrintString
  52              	.LVL5:
  22:.\menu.c      **** }
  53              		.loc 1 22 0
  54              		@ sp needed
  55 0020 08BD     		pop	{r3, pc}
  56              	.L3:
  57 0022 C046     		.align	2
  58              	.L2:
  59 0024 00000000 		.word	.LC0
  60              		.cfi_endproc
  61              	.LFE35:
  62              		.size	MenuInit, .-MenuInit
  63              		.section	.text.MenuBluetoothConnected,"ax",%progbits
  64              		.align	2
  65              		.global	MenuBluetoothConnected
  66              		.code	16
  67              		.thumb_func
  68              		.type	MenuBluetoothConnected, %function
  69              	MenuBluetoothConnected:
  70              	.LFB36:
  23:.\menu.c      **** 
  24:.\menu.c      **** /*! Function that enable or disable the bluetooth logo
  25:.\menu.c      ****  *  \param menu pointer to menu structure
  26:.\menu.c      ****  *  \param enable status of the bluetooth connection
  27:.\menu.c      ****  */
  28:.\menu.c      **** void MenuBluetoothConnected(menu_t* menu, uint8_t enable){
  71              		.loc 1 28 0
  72              		.cfi_startproc
  73              	.LVL6:
  74 0000 08B5     		push	{r3, lr}
  75              		.cfi_def_cfa_offset 8
  76              		.cfi_offset 3, -8
  77              		.cfi_offset 14, -4
  29:.\menu.c      ****     if(enable){
  78              		.loc 1 29 0
  79 0002 0029     		cmp	r1, #0
  80 0004 07D0     		beq	.L5
  30:.\menu.c      ****         LCD_Position(0u, 19u);
  81              		.loc 1 30 0
  82 0006 0020     		mov	r0, #0
  83              	.LVL7:
  84 0008 1321     		mov	r1, #19
ARM GAS  C:\Users\David\AppData\Local\Temp\ccT2keBW.s 			page 3


  85              	.LVL8:
  86 000a FFF7FEFF 		bl	LCD_Position
  87              	.LVL9:
  31:.\menu.c      ****         LCD_PutChar(LCD_CUSTOM_0);
  88              		.loc 1 31 0
  89 000e 0020     		mov	r0, #0
  90 0010 FFF7FEFF 		bl	LCD_PutChar
  91              	.LVL10:
  92 0014 06E0     		b	.L4
  93              	.LVL11:
  94              	.L5:
  32:.\menu.c      ****     }
  33:.\menu.c      ****     else{
  34:.\menu.c      ****         LCD_Position(0u, 19u);
  95              		.loc 1 34 0
  96 0016 0020     		mov	r0, #0
  97              	.LVL12:
  98 0018 1321     		mov	r1, #19
  99              	.LVL13:
 100 001a FFF7FEFF 		bl	LCD_Position
 101              	.LVL14:
  35:.\menu.c      ****         LCD_PutChar(' ');
 102              		.loc 1 35 0
 103 001e 2020     		mov	r0, #32
 104 0020 FFF7FEFF 		bl	LCD_PutChar
 105              	.LVL15:
 106              	.L4:
  36:.\menu.c      ****     }
  37:.\menu.c      **** }
 107              		.loc 1 37 0
 108              		@ sp needed
 109 0024 08BD     		pop	{r3, pc}
 110              		.cfi_endproc
 111              	.LFE36:
 112              		.size	MenuBluetoothConnected, .-MenuBluetoothConnected
 113 0026 C046     		.section	.rodata.str1.4,"aMS",%progbits,1
 114              		.align	2
 115              	.LC0:
 116 0000 44617473 		.ascii	"Datson Started\000"
 116      6F6E2053 
 116      74617274 
 116      656400
 117 000f 00       		.text
 118              	.Letext0:
 119              		.file 2 "c:\\program files (x86)\\cypress\\psoc creator\\3.2\\psoc creator\\import\\gnu\\arm\\4.8.
 120              		.file 3 "c:\\program files (x86)\\cypress\\psoc creator\\3.2\\psoc creator\\import\\gnu\\arm\\4.8.
 121              		.file 4 "Generated_Source\\PSoC4/cytypes.h"
 122              		.file 5 ".\\menu.h"
 123              		.file 6 "Generated_Source\\PSoC4/LCD.h"